ARM GAS  C:\Users\DAVID~1.FOB\AppData\Local\Temp\ccJ6XwSr.s 			page 1


   1              		.cpu cortex-m4
   2              		.arch armv7e-m
   3              		.fpu softvfp
   4              		.eabi_attribute 20, 1
   5              		.eabi_attribute 21, 1
   6              		.eabi_attribute 23, 3
   7              		.eabi_attribute 24, 1
   8              		.eabi_attribute 25, 1
   9              		.eabi_attribute 26, 1
  10              		.eabi_attribute 30, 1
  11              		.eabi_attribute 34, 1
  12              		.eabi_attribute 18, 4
  13              		.file	"digitalIO.cpp"
  14              		.text
  15              	.Ltext0:
  16              		.cfi_sections	.debug_frame
  17              		.file 1 "Core/Src/digitalIO.cpp"
  18              		.section	.text.Memory_CS_Set,"ax",%progbits
  19              		.align	1
  20              		.global	Memory_CS_Set
  21              		.syntax unified
  22              		.thumb
  23              		.thumb_func
  25              	Memory_CS_Set:
  26              		.fnstart
  27              	.LFB851:
   1:Core/Src/digitalIO.cpp **** #include "digitalIO.h"
   2:Core/Src/digitalIO.cpp **** 
   3:Core/Src/digitalIO.cpp **** // Path: Core/Src/digitalIO.c
   4:Core/Src/digitalIO.cpp **** 
   5:Core/Src/digitalIO.cpp **** namespace dio{
   6:Core/Src/digitalIO.cpp ****     // Memory_CS
   7:Core/Src/digitalIO.cpp ****     void Memory_CS_Set(void) {
  28              		.loc 1 7 30 view -0
  29              		.cfi_startproc
  30              		@ args = 0, pretend = 0, frame = 0
  31              		@ frame_needed = 0, uses_anonymous_args = 0
  32 0000 08B5     		push	{r3, lr}
  33              		.save {r3, lr}
  34              		.cfi_def_cfa_offset 8
  35              		.cfi_offset 3, -8
  36              		.cfi_offset 14, -4
   8:Core/Src/digitalIO.cpp ****         HAL_GPIO_WritePin(Memory_CS_GPIO_Port, Memory_CS_Pin, GPIO_PIN_SET);
  37              		.loc 1 8 9 view .LVU1
  38              		.loc 1 8 26 is_stmt 0 view .LVU2
  39 0002 0122     		movs	r2, #1
  40 0004 4FF40071 		mov	r1, #512
  41 0008 0148     		ldr	r0, .L3
  42 000a FFF7FEFF 		bl	HAL_GPIO_WritePin
  43              	.LVL0:
   9:Core/Src/digitalIO.cpp ****     }
  44              		.loc 1 9 5 view .LVU3
  45 000e 08BD     		pop	{r3, pc}
  46              	.L4:
  47              		.align	2
  48              	.L3:
  49 0010 00040048 		.word	1207960576
ARM GAS  C:\Users\DAVID~1.FOB\AppData\Local\Temp\ccJ6XwSr.s 			page 2


  50              		.cfi_endproc
  51              	.LFE851:
  52              		.fnend
  54              		.section	.text.Memory_CS_Reset,"ax",%progbits
  55              		.align	1
  56              		.global	Memory_CS_Reset
  57              		.syntax unified
  58              		.thumb
  59              		.thumb_func
  61              	Memory_CS_Reset:
  62              		.fnstart
  63              	.LFB852:
  10:Core/Src/digitalIO.cpp **** 
  11:Core/Src/digitalIO.cpp ****     void Memory_CS_Reset(void) {
  64              		.loc 1 11 32 is_stmt 1 view -0
  65              		.cfi_startproc
  66              		@ args = 0, pretend = 0, frame = 0
  67              		@ frame_needed = 0, uses_anonymous_args = 0
  68 0000 08B5     		push	{r3, lr}
  69              		.save {r3, lr}
  70              		.cfi_def_cfa_offset 8
  71              		.cfi_offset 3, -8
  72              		.cfi_offset 14, -4
  12:Core/Src/digitalIO.cpp ****         HAL_GPIO_WritePin(Memory_CS_GPIO_Port, Memory_CS_Pin, GPIO_PIN_RESET);
  73              		.loc 1 12 9 view .LVU5
  74              		.loc 1 12 26 is_stmt 0 view .LVU6
  75 0002 0022     		movs	r2, #0
  76 0004 4FF40071 		mov	r1, #512
  77 0008 0148     		ldr	r0, .L7
  78 000a FFF7FEFF 		bl	HAL_GPIO_WritePin
  79              	.LVL1:
  13:Core/Src/digitalIO.cpp ****     }
  80              		.loc 1 13 5 view .LVU7
  81 000e 08BD     		pop	{r3, pc}
  82              	.L8:
  83              		.align	2
  84              	.L7:
  85 0010 00040048 		.word	1207960576
  86              		.cfi_endproc
  87              	.LFE852:
  88              		.fnend
  90              		.section	.text.Bias_CS_Set,"ax",%progbits
  91              		.align	1
  92              		.global	Bias_CS_Set
  93              		.syntax unified
  94              		.thumb
  95              		.thumb_func
  97              	Bias_CS_Set:
  98              		.fnstart
  99              	.LFB853:
  14:Core/Src/digitalIO.cpp **** 
  15:Core/Src/digitalIO.cpp ****     // Bias_CS
  16:Core/Src/digitalIO.cpp ****     void Bias_CS_Set(void) {
 100              		.loc 1 16 28 is_stmt 1 view -0
 101              		.cfi_startproc
 102              		@ args = 0, pretend = 0, frame = 0
 103              		@ frame_needed = 0, uses_anonymous_args = 0
ARM GAS  C:\Users\DAVID~1.FOB\AppData\Local\Temp\ccJ6XwSr.s 			page 3


 104 0000 08B5     		push	{r3, lr}
 105              		.save {r3, lr}
 106              		.cfi_def_cfa_offset 8
 107              		.cfi_offset 3, -8
 108              		.cfi_offset 14, -4
  17:Core/Src/digitalIO.cpp ****         HAL_GPIO_WritePin(Bias_CS_GPIO_Port, Bias_CS_Pin, GPIO_PIN_SET);
 109              		.loc 1 17 9 view .LVU9
 110              		.loc 1 17 26 is_stmt 0 view .LVU10
 111 0002 0122     		movs	r2, #1
 112 0004 4FF48061 		mov	r1, #1024
 113 0008 4FF09040 		mov	r0, #1207959552
 114 000c FFF7FEFF 		bl	HAL_GPIO_WritePin
 115              	.LVL2:
  18:Core/Src/digitalIO.cpp ****     }
 116              		.loc 1 18 5 view .LVU11
 117 0010 08BD     		pop	{r3, pc}
 118              		.cfi_endproc
 119              	.LFE853:
 120              		.fnend
 122              		.section	.text.Bias_CS_Reset,"ax",%progbits
 123              		.align	1
 124              		.global	Bias_CS_Reset
 125              		.syntax unified
 126              		.thumb
 127              		.thumb_func
 129              	Bias_CS_Reset:
 130              		.fnstart
 131              	.LFB854:
  19:Core/Src/digitalIO.cpp **** 
  20:Core/Src/digitalIO.cpp ****     void Bias_CS_Reset(void) {
 132              		.loc 1 20 30 is_stmt 1 view -0
 133              		.cfi_startproc
 134              		@ args = 0, pretend = 0, frame = 0
 135              		@ frame_needed = 0, uses_anonymous_args = 0
 136 0000 08B5     		push	{r3, lr}
 137              		.save {r3, lr}
 138              		.cfi_def_cfa_offset 8
 139              		.cfi_offset 3, -8
 140              		.cfi_offset 14, -4
  21:Core/Src/digitalIO.cpp ****         HAL_GPIO_WritePin(Bias_CS_GPIO_Port, Bias_CS_Pin, GPIO_PIN_RESET);
 141              		.loc 1 21 9 view .LVU13
 142              		.loc 1 21 26 is_stmt 0 view .LVU14
 143 0002 0022     		movs	r2, #0
 144 0004 4FF48061 		mov	r1, #1024
 145 0008 4FF09040 		mov	r0, #1207959552
 146 000c FFF7FEFF 		bl	HAL_GPIO_WritePin
 147              	.LVL3:
  22:Core/Src/digitalIO.cpp ****     }
 148              		.loc 1 22 5 view .LVU15
 149 0010 08BD     		pop	{r3, pc}
 150              		.cfi_endproc
 151              	.LFE854:
 152              		.fnend
 154              		.section	.text.LED_Set,"ax",%progbits
 155              		.align	1
 156              		.global	LED_Set
 157              		.syntax unified
ARM GAS  C:\Users\DAVID~1.FOB\AppData\Local\Temp\ccJ6XwSr.s 			page 4


 158              		.thumb
 159              		.thumb_func
 161              	LED_Set:
 162              		.fnstart
 163              	.LFB855:
  23:Core/Src/digitalIO.cpp **** 
  24:Core/Src/digitalIO.cpp ****     // LED
  25:Core/Src/digitalIO.cpp ****     void LED_Set(void) {
 164              		.loc 1 25 24 is_stmt 1 view -0
 165              		.cfi_startproc
 166              		@ args = 0, pretend = 0, frame = 0
 167              		@ frame_needed = 0, uses_anonymous_args = 0
 168 0000 08B5     		push	{r3, lr}
 169              		.save {r3, lr}
 170              		.cfi_def_cfa_offset 8
 171              		.cfi_offset 3, -8
 172              		.cfi_offset 14, -4
  26:Core/Src/digitalIO.cpp ****         HAL_GPIO_WritePin(LED_GPIO_Port, LED_Pin, GPIO_PIN_SET);
 173              		.loc 1 26 9 view .LVU17
 174              		.loc 1 26 26 is_stmt 0 view .LVU18
 175 0002 0122     		movs	r2, #1
 176 0004 2021     		movs	r1, #32
 177 0006 0248     		ldr	r0, .L15
 178 0008 FFF7FEFF 		bl	HAL_GPIO_WritePin
 179              	.LVL4:
  27:Core/Src/digitalIO.cpp ****     }
 180              		.loc 1 27 5 view .LVU19
 181 000c 08BD     		pop	{r3, pc}
 182              	.L16:
 183 000e 00BF     		.align	2
 184              	.L15:
 185 0010 00040048 		.word	1207960576
 186              		.cfi_endproc
 187              	.LFE855:
 188              		.fnend
 190              		.section	.text.LED_Reset,"ax",%progbits
 191              		.align	1
 192              		.global	LED_Reset
 193              		.syntax unified
 194              		.thumb
 195              		.thumb_func
 197              	LED_Reset:
 198              		.fnstart
 199              	.LFB856:
  28:Core/Src/digitalIO.cpp **** 
  29:Core/Src/digitalIO.cpp ****     void LED_Reset(void) {
 200              		.loc 1 29 26 is_stmt 1 view -0
 201              		.cfi_startproc
 202              		@ args = 0, pretend = 0, frame = 0
 203              		@ frame_needed = 0, uses_anonymous_args = 0
 204 0000 08B5     		push	{r3, lr}
 205              		.save {r3, lr}
 206              		.cfi_def_cfa_offset 8
 207              		.cfi_offset 3, -8
 208              		.cfi_offset 14, -4
  30:Core/Src/digitalIO.cpp ****         HAL_GPIO_WritePin(LED_GPIO_Port, LED_Pin, GPIO_PIN_RESET);
 209              		.loc 1 30 9 view .LVU21
ARM GAS  C:\Users\DAVID~1.FOB\AppData\Local\Temp\ccJ6XwSr.s 			page 5


 210              		.loc 1 30 26 is_stmt 0 view .LVU22
 211 0002 0022     		movs	r2, #0
 212 0004 2021     		movs	r1, #32
 213 0006 0248     		ldr	r0, .L19
 214 0008 FFF7FEFF 		bl	HAL_GPIO_WritePin
 215              	.LVL5:
  31:Core/Src/digitalIO.cpp ****     }
 216              		.loc 1 31 5 view .LVU23
 217 000c 08BD     		pop	{r3, pc}
 218              	.L20:
 219 000e 00BF     		.align	2
 220              	.L19:
 221 0010 00040048 		.word	1207960576
 222              		.cfi_endproc
 223              	.LFE856:
 224              		.fnend
 226              		.section	.text.Anneal_Enable_Set,"ax",%progbits
 227              		.align	1
 228              		.global	Anneal_Enable_Set
 229              		.syntax unified
 230              		.thumb
 231              		.thumb_func
 233              	Anneal_Enable_Set:
 234              		.fnstart
 235              	.LFB857:
  32:Core/Src/digitalIO.cpp **** 
  33:Core/Src/digitalIO.cpp ****     // Anneal_Enable
  34:Core/Src/digitalIO.cpp ****     void Anneal_Enable_Set(void) {
 236              		.loc 1 34 34 is_stmt 1 view -0
 237              		.cfi_startproc
 238              		@ args = 0, pretend = 0, frame = 0
 239              		@ frame_needed = 0, uses_anonymous_args = 0
 240 0000 08B5     		push	{r3, lr}
 241              		.save {r3, lr}
 242              		.cfi_def_cfa_offset 8
 243              		.cfi_offset 3, -8
 244              		.cfi_offset 14, -4
  35:Core/Src/digitalIO.cpp ****         HAL_GPIO_WritePin(Anneal_Enable_GPIO_Port, Anneal_Enable_Pin, GPIO_PIN_SET);
 245              		.loc 1 35 9 view .LVU25
 246              		.loc 1 35 26 is_stmt 0 view .LVU26
 247 0002 0122     		movs	r2, #1
 248 0004 1146     		mov	r1, r2
 249 0006 4FF09040 		mov	r0, #1207959552
 250 000a FFF7FEFF 		bl	HAL_GPIO_WritePin
 251              	.LVL6:
  36:Core/Src/digitalIO.cpp ****     }
 252              		.loc 1 36 5 view .LVU27
 253 000e 08BD     		pop	{r3, pc}
 254              		.cfi_endproc
 255              	.LFE857:
 256              		.fnend
 258              		.section	.text.Anneal_Enable_Reset,"ax",%progbits
 259              		.align	1
 260              		.global	Anneal_Enable_Reset
 261              		.syntax unified
 262              		.thumb
 263              		.thumb_func
ARM GAS  C:\Users\DAVID~1.FOB\AppData\Local\Temp\ccJ6XwSr.s 			page 6


 265              	Anneal_Enable_Reset:
 266              		.fnstart
 267              	.LFB858:
  37:Core/Src/digitalIO.cpp **** 
  38:Core/Src/digitalIO.cpp ****     void Anneal_Enable_Reset(void) {
 268              		.loc 1 38 36 is_stmt 1 view -0
 269              		.cfi_startproc
 270              		@ args = 0, pretend = 0, frame = 0
 271              		@ frame_needed = 0, uses_anonymous_args = 0
 272 0000 08B5     		push	{r3, lr}
 273              		.save {r3, lr}
 274              		.cfi_def_cfa_offset 8
 275              		.cfi_offset 3, -8
 276              		.cfi_offset 14, -4
  39:Core/Src/digitalIO.cpp ****         HAL_GPIO_WritePin(Anneal_Enable_GPIO_Port, Anneal_Enable_Pin, GPIO_PIN_RESET);
 277              		.loc 1 39 9 view .LVU29
 278              		.loc 1 39 26 is_stmt 0 view .LVU30
 279 0002 0022     		movs	r2, #0
 280 0004 0121     		movs	r1, #1
 281 0006 4FF09040 		mov	r0, #1207959552
 282 000a FFF7FEFF 		bl	HAL_GPIO_WritePin
 283              	.LVL7:
  40:Core/Src/digitalIO.cpp ****     }
 284              		.loc 1 40 5 view .LVU31
 285 000e 08BD     		pop	{r3, pc}
 286              		.cfi_endproc
 287              	.LFE858:
 288              		.fnend
 290              		.section	.text.Bias_Enable_Set,"ax",%progbits
 291              		.align	1
 292              		.global	Bias_Enable_Set
 293              		.syntax unified
 294              		.thumb
 295              		.thumb_func
 297              	Bias_Enable_Set:
 298              		.fnstart
 299              	.LFB859:
  41:Core/Src/digitalIO.cpp **** 
  42:Core/Src/digitalIO.cpp ****     // Bias_Enable
  43:Core/Src/digitalIO.cpp ****     void Bias_Enable_Set(void) {
 300              		.loc 1 43 32 is_stmt 1 view -0
 301              		.cfi_startproc
 302              		@ args = 0, pretend = 0, frame = 0
 303              		@ frame_needed = 0, uses_anonymous_args = 0
 304 0000 08B5     		push	{r3, lr}
 305              		.save {r3, lr}
 306              		.cfi_def_cfa_offset 8
 307              		.cfi_offset 3, -8
 308              		.cfi_offset 14, -4
  44:Core/Src/digitalIO.cpp ****         HAL_GPIO_WritePin(Bias_Enable_GPIO_Port, Bias_Enable_Pin, GPIO_PIN_SET);
 309              		.loc 1 44 9 view .LVU33
 310              		.loc 1 44 26 is_stmt 0 view .LVU34
 311 0002 0122     		movs	r2, #1
 312 0004 0821     		movs	r1, #8
 313 0006 4FF09040 		mov	r0, #1207959552
 314 000a FFF7FEFF 		bl	HAL_GPIO_WritePin
 315              	.LVL8:
ARM GAS  C:\Users\DAVID~1.FOB\AppData\Local\Temp\ccJ6XwSr.s 			page 7


  45:Core/Src/digitalIO.cpp ****     }
 316              		.loc 1 45 5 view .LVU35
 317 000e 08BD     		pop	{r3, pc}
 318              		.cfi_endproc
 319              	.LFE859:
 320              		.fnend
 322              		.section	.text.Bias_Enable_Reset,"ax",%progbits
 323              		.align	1
 324              		.global	Bias_Enable_Reset
 325              		.syntax unified
 326              		.thumb
 327              		.thumb_func
 329              	Bias_Enable_Reset:
 330              		.fnstart
 331              	.LFB860:
  46:Core/Src/digitalIO.cpp **** 
  47:Core/Src/digitalIO.cpp ****     void Bias_Enable_Reset(void) {
 332              		.loc 1 47 34 is_stmt 1 view -0
 333              		.cfi_startproc
 334              		@ args = 0, pretend = 0, frame = 0
 335              		@ frame_needed = 0, uses_anonymous_args = 0
 336 0000 08B5     		push	{r3, lr}
 337              		.save {r3, lr}
 338              		.cfi_def_cfa_offset 8
 339              		.cfi_offset 3, -8
 340              		.cfi_offset 14, -4
  48:Core/Src/digitalIO.cpp ****         HAL_GPIO_WritePin(Bias_Enable_GPIO_Port, Bias_Enable_Pin, GPIO_PIN_RESET);
 341              		.loc 1 48 9 view .LVU37
 342              		.loc 1 48 26 is_stmt 0 view .LVU38
 343 0002 0022     		movs	r2, #0
 344 0004 0821     		movs	r1, #8
 345 0006 4FF09040 		mov	r0, #1207959552
 346 000a FFF7FEFF 		bl	HAL_GPIO_WritePin
 347              	.LVL9:
  49:Core/Src/digitalIO.cpp ****     }
 348              		.loc 1 49 5 view .LVU39
 349 000e 08BD     		pop	{r3, pc}
 350              		.cfi_endproc
 351              	.LFE860:
 352              		.fnend
 354              		.section	.text.Stim_Enable_Set,"ax",%progbits
 355              		.align	1
 356              		.global	Stim_Enable_Set
 357              		.syntax unified
 358              		.thumb
 359              		.thumb_func
 361              	Stim_Enable_Set:
 362              		.fnstart
 363              	.LFB861:
  50:Core/Src/digitalIO.cpp **** 
  51:Core/Src/digitalIO.cpp ****     // Stim_Enable
  52:Core/Src/digitalIO.cpp ****     void Stim_Enable_Set(void) {
 364              		.loc 1 52 32 is_stmt 1 view -0
 365              		.cfi_startproc
 366              		@ args = 0, pretend = 0, frame = 0
 367              		@ frame_needed = 0, uses_anonymous_args = 0
 368 0000 08B5     		push	{r3, lr}
ARM GAS  C:\Users\DAVID~1.FOB\AppData\Local\Temp\ccJ6XwSr.s 			page 8


 369              		.save {r3, lr}
 370              		.cfi_def_cfa_offset 8
 371              		.cfi_offset 3, -8
 372              		.cfi_offset 14, -4
  53:Core/Src/digitalIO.cpp ****         HAL_GPIO_WritePin(Stim_Enable_GPIO_Port, Stim_Enable_Pin, GPIO_PIN_SET);
 373              		.loc 1 53 9 view .LVU41
 374              		.loc 1 53 26 is_stmt 0 view .LVU42
 375 0002 0122     		movs	r2, #1
 376 0004 0421     		movs	r1, #4
 377 0006 4FF09040 		mov	r0, #1207959552
 378 000a FFF7FEFF 		bl	HAL_GPIO_WritePin
 379              	.LVL10:
  54:Core/Src/digitalIO.cpp ****     }
 380              		.loc 1 54 5 view .LVU43
 381 000e 08BD     		pop	{r3, pc}
 382              		.cfi_endproc
 383              	.LFE861:
 384              		.fnend
 386              		.section	.text.Stim_Enable_Reset,"ax",%progbits
 387              		.align	1
 388              		.global	Stim_Enable_Reset
 389              		.syntax unified
 390              		.thumb
 391              		.thumb_func
 393              	Stim_Enable_Reset:
 394              		.fnstart
 395              	.LFB862:
  55:Core/Src/digitalIO.cpp **** 
  56:Core/Src/digitalIO.cpp ****     void Stim_Enable_Reset(void) {
 396              		.loc 1 56 34 is_stmt 1 view -0
 397              		.cfi_startproc
 398              		@ args = 0, pretend = 0, frame = 0
 399              		@ frame_needed = 0, uses_anonymous_args = 0
 400 0000 08B5     		push	{r3, lr}
 401              		.save {r3, lr}
 402              		.cfi_def_cfa_offset 8
 403              		.cfi_offset 3, -8
 404              		.cfi_offset 14, -4
  57:Core/Src/digitalIO.cpp ****         HAL_GPIO_WritePin(Stim_Enable_GPIO_Port, Stim_Enable_Pin, GPIO_PIN_RESET);
 405              		.loc 1 57 9 view .LVU45
 406              		.loc 1 57 26 is_stmt 0 view .LVU46
 407 0002 0022     		movs	r2, #0
 408 0004 0421     		movs	r1, #4
 409 0006 4FF09040 		mov	r0, #1207959552
 410 000a FFF7FEFF 		bl	HAL_GPIO_WritePin
 411              	.LVL11:
  58:Core/Src/digitalIO.cpp ****     }
 412              		.loc 1 58 5 view .LVU47
 413 000e 08BD     		pop	{r3, pc}
 414              		.cfi_endproc
 415              	.LFE862:
 416              		.fnend
 418              		.text
 419              	.Letext0:
 420              		.file 2 "c:\\users\\david.fobar\\appdata\\roaming\\code\\user\\globalstorage\\bmd.stm32-for-vscode
 421              		.file 3 "c:\\users\\david.fobar\\appdata\\roaming\\code\\user\\globalstorage\\bmd.stm32-for-vscode
 422              		.file 4 "Drivers/CMSIS/Device/ST/STM32WLxx/Include/stm32wle5xx.h"
ARM GAS  C:\Users\DAVID~1.FOB\AppData\Local\Temp\ccJ6XwSr.s 			page 9


 423              		.file 5 "Drivers/STM32WLxx_HAL_Driver/Inc/stm32wlxx_hal_gpio.h"
 424              		.file 6 "Drivers/STM32WLxx_HAL_Driver/Inc/stm32wlxx_ll_dma.h"
 425              		.file 7 "Core/Inc/digitalIO.h"
ARM GAS  C:\Users\DAVID~1.FOB\AppData\Local\Temp\ccJ6XwSr.s 			page 10

