ARM GAS  C:\Users\DAVID~1.FOB\AppData\Local\Temp\ccvrB5Zl.s 			page 1


   1              		.cpu cortex-m4
   2              		.arch armv7e-m
   3              		.fpu softvfp
   4              		.eabi_attribute 20, 1
   5              		.eabi_attribute 21, 1
   6              		.eabi_attribute 23, 3
   7              		.eabi_attribute 24, 1
   8              		.eabi_attribute 25, 1
   9              		.eabi_attribute 26, 1
  10              		.eabi_attribute 30, 1
  11              		.eabi_attribute 34, 1
  12              		.eabi_attribute 18, 4
  13              		.file	"stm32wlxx_hal_i2c_ex.c"
  14              		.text
  15              	.Ltext0:
  16              		.cfi_sections	.debug_frame
  17              		.file 1 "Drivers/STM32WLxx_HAL_Driver/Src/stm32wlxx_hal_i2c_ex.c"
  18              		.section	.text.HAL_I2CEx_ConfigAnalogFilter,"ax",%progbits
  19              		.align	1
  20              		.global	HAL_I2CEx_ConfigAnalogFilter
  21              		.syntax unified
  22              		.thumb
  23              		.thumb_func
  25              	HAL_I2CEx_ConfigAnalogFilter:
  26              	.LVL0:
  27              	.LFB851:
   1:Drivers/STM32WLxx_HAL_Driver/Src/stm32wlxx_hal_i2c_ex.c **** /**
   2:Drivers/STM32WLxx_HAL_Driver/Src/stm32wlxx_hal_i2c_ex.c ****   ******************************************************************************
   3:Drivers/STM32WLxx_HAL_Driver/Src/stm32wlxx_hal_i2c_ex.c ****   * @file    stm32wlxx_hal_i2c_ex.c
   4:Drivers/STM32WLxx_HAL_Driver/Src/stm32wlxx_hal_i2c_ex.c ****   * @author  MCD Application Team
   5:Drivers/STM32WLxx_HAL_Driver/Src/stm32wlxx_hal_i2c_ex.c ****   * @brief   I2C Extended HAL module driver.
   6:Drivers/STM32WLxx_HAL_Driver/Src/stm32wlxx_hal_i2c_ex.c ****   *          This file provides firmware functions to manage the following
   7:Drivers/STM32WLxx_HAL_Driver/Src/stm32wlxx_hal_i2c_ex.c ****   *          functionalities of I2C Extended peripheral:
   8:Drivers/STM32WLxx_HAL_Driver/Src/stm32wlxx_hal_i2c_ex.c ****   *           + Filter Mode Functions
   9:Drivers/STM32WLxx_HAL_Driver/Src/stm32wlxx_hal_i2c_ex.c ****   *           + WakeUp Mode Functions
  10:Drivers/STM32WLxx_HAL_Driver/Src/stm32wlxx_hal_i2c_ex.c ****   *           + FastModePlus Functions
  11:Drivers/STM32WLxx_HAL_Driver/Src/stm32wlxx_hal_i2c_ex.c ****   *
  12:Drivers/STM32WLxx_HAL_Driver/Src/stm32wlxx_hal_i2c_ex.c ****   ******************************************************************************
  13:Drivers/STM32WLxx_HAL_Driver/Src/stm32wlxx_hal_i2c_ex.c ****   * @attention
  14:Drivers/STM32WLxx_HAL_Driver/Src/stm32wlxx_hal_i2c_ex.c ****   *
  15:Drivers/STM32WLxx_HAL_Driver/Src/stm32wlxx_hal_i2c_ex.c ****   * Copyright (c) 2020 STMicroelectronics.
  16:Drivers/STM32WLxx_HAL_Driver/Src/stm32wlxx_hal_i2c_ex.c ****   * All rights reserved.
  17:Drivers/STM32WLxx_HAL_Driver/Src/stm32wlxx_hal_i2c_ex.c ****   *
  18:Drivers/STM32WLxx_HAL_Driver/Src/stm32wlxx_hal_i2c_ex.c ****   * This software is licensed under terms that can be found in the LICENSE file
  19:Drivers/STM32WLxx_HAL_Driver/Src/stm32wlxx_hal_i2c_ex.c ****   * in the root directory of this software component.
  20:Drivers/STM32WLxx_HAL_Driver/Src/stm32wlxx_hal_i2c_ex.c ****   * If no LICENSE file comes with this software, it is provided AS-IS.
  21:Drivers/STM32WLxx_HAL_Driver/Src/stm32wlxx_hal_i2c_ex.c ****   *
  22:Drivers/STM32WLxx_HAL_Driver/Src/stm32wlxx_hal_i2c_ex.c ****   ******************************************************************************
  23:Drivers/STM32WLxx_HAL_Driver/Src/stm32wlxx_hal_i2c_ex.c ****   @verbatim
  24:Drivers/STM32WLxx_HAL_Driver/Src/stm32wlxx_hal_i2c_ex.c ****   ==============================================================================
  25:Drivers/STM32WLxx_HAL_Driver/Src/stm32wlxx_hal_i2c_ex.c ****                ##### I2C peripheral Extended features  #####
  26:Drivers/STM32WLxx_HAL_Driver/Src/stm32wlxx_hal_i2c_ex.c ****   ==============================================================================
  27:Drivers/STM32WLxx_HAL_Driver/Src/stm32wlxx_hal_i2c_ex.c **** 
  28:Drivers/STM32WLxx_HAL_Driver/Src/stm32wlxx_hal_i2c_ex.c ****   [..] Comparing to other previous devices, the I2C interface for STM32WLxx
  29:Drivers/STM32WLxx_HAL_Driver/Src/stm32wlxx_hal_i2c_ex.c ****        devices contains the following additional features
  30:Drivers/STM32WLxx_HAL_Driver/Src/stm32wlxx_hal_i2c_ex.c **** 
  31:Drivers/STM32WLxx_HAL_Driver/Src/stm32wlxx_hal_i2c_ex.c ****        (+) Possibility to disable or enable Analog Noise Filter
ARM GAS  C:\Users\DAVID~1.FOB\AppData\Local\Temp\ccvrB5Zl.s 			page 2


  32:Drivers/STM32WLxx_HAL_Driver/Src/stm32wlxx_hal_i2c_ex.c ****        (+) Use of a configured Digital Noise Filter
  33:Drivers/STM32WLxx_HAL_Driver/Src/stm32wlxx_hal_i2c_ex.c ****        (+) Disable or enable wakeup from Stop mode(s)
  34:Drivers/STM32WLxx_HAL_Driver/Src/stm32wlxx_hal_i2c_ex.c ****        (+) Disable or enable Fast Mode Plus
  35:Drivers/STM32WLxx_HAL_Driver/Src/stm32wlxx_hal_i2c_ex.c **** 
  36:Drivers/STM32WLxx_HAL_Driver/Src/stm32wlxx_hal_i2c_ex.c ****                      ##### How to use this driver #####
  37:Drivers/STM32WLxx_HAL_Driver/Src/stm32wlxx_hal_i2c_ex.c ****   ==============================================================================
  38:Drivers/STM32WLxx_HAL_Driver/Src/stm32wlxx_hal_i2c_ex.c ****   [..] This driver provides functions to configure Noise Filter and Wake Up Feature
  39:Drivers/STM32WLxx_HAL_Driver/Src/stm32wlxx_hal_i2c_ex.c ****     (#) Configure I2C Analog noise filter using the function HAL_I2CEx_ConfigAnalogFilter()
  40:Drivers/STM32WLxx_HAL_Driver/Src/stm32wlxx_hal_i2c_ex.c ****     (#) Configure I2C Digital noise filter using the function HAL_I2CEx_ConfigDigitalFilter()
  41:Drivers/STM32WLxx_HAL_Driver/Src/stm32wlxx_hal_i2c_ex.c ****     (#) Configure the enable or disable of I2C Wake Up Mode using the functions :
  42:Drivers/STM32WLxx_HAL_Driver/Src/stm32wlxx_hal_i2c_ex.c ****           (++) HAL_I2CEx_EnableWakeUp()
  43:Drivers/STM32WLxx_HAL_Driver/Src/stm32wlxx_hal_i2c_ex.c ****           (++) HAL_I2CEx_DisableWakeUp()
  44:Drivers/STM32WLxx_HAL_Driver/Src/stm32wlxx_hal_i2c_ex.c ****     (#) Configure the enable or disable of fast mode plus driving capability using the functions :
  45:Drivers/STM32WLxx_HAL_Driver/Src/stm32wlxx_hal_i2c_ex.c ****           (++) HAL_I2CEx_EnableFastModePlus()
  46:Drivers/STM32WLxx_HAL_Driver/Src/stm32wlxx_hal_i2c_ex.c ****           (++) HAL_I2CEx_DisableFastModePlus()
  47:Drivers/STM32WLxx_HAL_Driver/Src/stm32wlxx_hal_i2c_ex.c ****   @endverbatim
  48:Drivers/STM32WLxx_HAL_Driver/Src/stm32wlxx_hal_i2c_ex.c ****   */
  49:Drivers/STM32WLxx_HAL_Driver/Src/stm32wlxx_hal_i2c_ex.c **** 
  50:Drivers/STM32WLxx_HAL_Driver/Src/stm32wlxx_hal_i2c_ex.c **** /* Includes ------------------------------------------------------------------*/
  51:Drivers/STM32WLxx_HAL_Driver/Src/stm32wlxx_hal_i2c_ex.c **** #include "stm32wlxx_hal.h"
  52:Drivers/STM32WLxx_HAL_Driver/Src/stm32wlxx_hal_i2c_ex.c **** 
  53:Drivers/STM32WLxx_HAL_Driver/Src/stm32wlxx_hal_i2c_ex.c **** /** @addtogroup STM32WLxx_HAL_Driver
  54:Drivers/STM32WLxx_HAL_Driver/Src/stm32wlxx_hal_i2c_ex.c ****   * @{
  55:Drivers/STM32WLxx_HAL_Driver/Src/stm32wlxx_hal_i2c_ex.c ****   */
  56:Drivers/STM32WLxx_HAL_Driver/Src/stm32wlxx_hal_i2c_ex.c **** 
  57:Drivers/STM32WLxx_HAL_Driver/Src/stm32wlxx_hal_i2c_ex.c **** /** @defgroup I2CEx I2CEx
  58:Drivers/STM32WLxx_HAL_Driver/Src/stm32wlxx_hal_i2c_ex.c ****   * @brief I2C Extended HAL module driver
  59:Drivers/STM32WLxx_HAL_Driver/Src/stm32wlxx_hal_i2c_ex.c ****   * @{
  60:Drivers/STM32WLxx_HAL_Driver/Src/stm32wlxx_hal_i2c_ex.c ****   */
  61:Drivers/STM32WLxx_HAL_Driver/Src/stm32wlxx_hal_i2c_ex.c **** 
  62:Drivers/STM32WLxx_HAL_Driver/Src/stm32wlxx_hal_i2c_ex.c **** #ifdef HAL_I2C_MODULE_ENABLED
  63:Drivers/STM32WLxx_HAL_Driver/Src/stm32wlxx_hal_i2c_ex.c **** 
  64:Drivers/STM32WLxx_HAL_Driver/Src/stm32wlxx_hal_i2c_ex.c **** /* Private typedef -----------------------------------------------------------*/
  65:Drivers/STM32WLxx_HAL_Driver/Src/stm32wlxx_hal_i2c_ex.c **** /* Private define ------------------------------------------------------------*/
  66:Drivers/STM32WLxx_HAL_Driver/Src/stm32wlxx_hal_i2c_ex.c **** /* Private macro -------------------------------------------------------------*/
  67:Drivers/STM32WLxx_HAL_Driver/Src/stm32wlxx_hal_i2c_ex.c **** /* Private variables ---------------------------------------------------------*/
  68:Drivers/STM32WLxx_HAL_Driver/Src/stm32wlxx_hal_i2c_ex.c **** /* Private function prototypes -----------------------------------------------*/
  69:Drivers/STM32WLxx_HAL_Driver/Src/stm32wlxx_hal_i2c_ex.c **** /* Private functions ---------------------------------------------------------*/
  70:Drivers/STM32WLxx_HAL_Driver/Src/stm32wlxx_hal_i2c_ex.c **** 
  71:Drivers/STM32WLxx_HAL_Driver/Src/stm32wlxx_hal_i2c_ex.c **** /** @defgroup I2CEx_Exported_Functions I2C Extended Exported Functions
  72:Drivers/STM32WLxx_HAL_Driver/Src/stm32wlxx_hal_i2c_ex.c ****   * @{
  73:Drivers/STM32WLxx_HAL_Driver/Src/stm32wlxx_hal_i2c_ex.c ****   */
  74:Drivers/STM32WLxx_HAL_Driver/Src/stm32wlxx_hal_i2c_ex.c **** 
  75:Drivers/STM32WLxx_HAL_Driver/Src/stm32wlxx_hal_i2c_ex.c **** /** @defgroup I2CEx_Exported_Functions_Group1 Filter Mode Functions
  76:Drivers/STM32WLxx_HAL_Driver/Src/stm32wlxx_hal_i2c_ex.c ****   * @brief    Filter Mode Functions
  77:Drivers/STM32WLxx_HAL_Driver/Src/stm32wlxx_hal_i2c_ex.c ****   *
  78:Drivers/STM32WLxx_HAL_Driver/Src/stm32wlxx_hal_i2c_ex.c **** @verbatim
  79:Drivers/STM32WLxx_HAL_Driver/Src/stm32wlxx_hal_i2c_ex.c ****  ===============================================================================
  80:Drivers/STM32WLxx_HAL_Driver/Src/stm32wlxx_hal_i2c_ex.c ****                       ##### Filter Mode Functions #####
  81:Drivers/STM32WLxx_HAL_Driver/Src/stm32wlxx_hal_i2c_ex.c ****  ===============================================================================
  82:Drivers/STM32WLxx_HAL_Driver/Src/stm32wlxx_hal_i2c_ex.c ****     [..] This section provides functions allowing to:
  83:Drivers/STM32WLxx_HAL_Driver/Src/stm32wlxx_hal_i2c_ex.c ****       (+) Configure Noise Filters
  84:Drivers/STM32WLxx_HAL_Driver/Src/stm32wlxx_hal_i2c_ex.c **** 
  85:Drivers/STM32WLxx_HAL_Driver/Src/stm32wlxx_hal_i2c_ex.c **** @endverbatim
  86:Drivers/STM32WLxx_HAL_Driver/Src/stm32wlxx_hal_i2c_ex.c ****   * @{
  87:Drivers/STM32WLxx_HAL_Driver/Src/stm32wlxx_hal_i2c_ex.c ****   */
  88:Drivers/STM32WLxx_HAL_Driver/Src/stm32wlxx_hal_i2c_ex.c **** 
ARM GAS  C:\Users\DAVID~1.FOB\AppData\Local\Temp\ccvrB5Zl.s 			page 3


  89:Drivers/STM32WLxx_HAL_Driver/Src/stm32wlxx_hal_i2c_ex.c **** /**
  90:Drivers/STM32WLxx_HAL_Driver/Src/stm32wlxx_hal_i2c_ex.c ****   * @brief  Configure I2C Analog noise filter.
  91:Drivers/STM32WLxx_HAL_Driver/Src/stm32wlxx_hal_i2c_ex.c ****   * @param  hi2c Pointer to a I2C_HandleTypeDef structure that contains
  92:Drivers/STM32WLxx_HAL_Driver/Src/stm32wlxx_hal_i2c_ex.c ****   *                the configuration information for the specified I2Cx peripheral.
  93:Drivers/STM32WLxx_HAL_Driver/Src/stm32wlxx_hal_i2c_ex.c ****   * @param  AnalogFilter New state of the Analog filter.
  94:Drivers/STM32WLxx_HAL_Driver/Src/stm32wlxx_hal_i2c_ex.c ****   * @retval HAL status
  95:Drivers/STM32WLxx_HAL_Driver/Src/stm32wlxx_hal_i2c_ex.c ****   */
  96:Drivers/STM32WLxx_HAL_Driver/Src/stm32wlxx_hal_i2c_ex.c **** HAL_StatusTypeDef HAL_I2CEx_ConfigAnalogFilter(I2C_HandleTypeDef *hi2c, uint32_t AnalogFilter)
  97:Drivers/STM32WLxx_HAL_Driver/Src/stm32wlxx_hal_i2c_ex.c **** {
  28              		.loc 1 97 1 view -0
  29              		.cfi_startproc
  30              		@ args = 0, pretend = 0, frame = 0
  31              		@ frame_needed = 0, uses_anonymous_args = 0
  32              		@ link register save eliminated.
  33              		.loc 1 97 1 is_stmt 0 view .LVU1
  34 0000 0346     		mov	r3, r0
  98:Drivers/STM32WLxx_HAL_Driver/Src/stm32wlxx_hal_i2c_ex.c ****   /* Check the parameters */
  99:Drivers/STM32WLxx_HAL_Driver/Src/stm32wlxx_hal_i2c_ex.c ****   assert_param(IS_I2C_ALL_INSTANCE(hi2c->Instance));
  35              		.loc 1 99 3 is_stmt 1 view .LVU2
 100:Drivers/STM32WLxx_HAL_Driver/Src/stm32wlxx_hal_i2c_ex.c ****   assert_param(IS_I2C_ANALOG_FILTER(AnalogFilter));
  36              		.loc 1 100 3 view .LVU3
 101:Drivers/STM32WLxx_HAL_Driver/Src/stm32wlxx_hal_i2c_ex.c **** 
 102:Drivers/STM32WLxx_HAL_Driver/Src/stm32wlxx_hal_i2c_ex.c ****   if (hi2c->State == HAL_I2C_STATE_READY)
  37              		.loc 1 102 3 view .LVU4
  38              		.loc 1 102 11 is_stmt 0 view .LVU5
  39 0002 90F84120 		ldrb	r2, [r0, #65]	@ zero_extendqisi2
  40 0006 D2B2     		uxtb	r2, r2
  41              		.loc 1 102 6 view .LVU6
  42 0008 202A     		cmp	r2, #32
  43 000a 23D1     		bne	.L3
 103:Drivers/STM32WLxx_HAL_Driver/Src/stm32wlxx_hal_i2c_ex.c ****   {
 104:Drivers/STM32WLxx_HAL_Driver/Src/stm32wlxx_hal_i2c_ex.c ****     /* Process Locked */
 105:Drivers/STM32WLxx_HAL_Driver/Src/stm32wlxx_hal_i2c_ex.c ****     __HAL_LOCK(hi2c);
  44              		.loc 1 105 5 is_stmt 1 view .LVU7
  45              		.loc 1 105 5 view .LVU8
  46 000c 90F84020 		ldrb	r2, [r0, #64]	@ zero_extendqisi2
  47 0010 012A     		cmp	r2, #1
  48 0012 21D0     		beq	.L4
  49              		.loc 1 105 5 discriminator 2 view .LVU9
  50 0014 0122     		movs	r2, #1
  51 0016 80F84020 		strb	r2, [r0, #64]
  52              		.loc 1 105 5 discriminator 2 view .LVU10
 106:Drivers/STM32WLxx_HAL_Driver/Src/stm32wlxx_hal_i2c_ex.c **** 
 107:Drivers/STM32WLxx_HAL_Driver/Src/stm32wlxx_hal_i2c_ex.c ****     hi2c->State = HAL_I2C_STATE_BUSY;
  53              		.loc 1 107 5 discriminator 2 view .LVU11
  54              		.loc 1 107 17 is_stmt 0 discriminator 2 view .LVU12
  55 001a 2422     		movs	r2, #36
  56 001c 80F84120 		strb	r2, [r0, #65]
 108:Drivers/STM32WLxx_HAL_Driver/Src/stm32wlxx_hal_i2c_ex.c **** 
 109:Drivers/STM32WLxx_HAL_Driver/Src/stm32wlxx_hal_i2c_ex.c ****     /* Disable the selected I2C peripheral */
 110:Drivers/STM32WLxx_HAL_Driver/Src/stm32wlxx_hal_i2c_ex.c ****     __HAL_I2C_DISABLE(hi2c);
  57              		.loc 1 110 5 is_stmt 1 discriminator 2 view .LVU13
  58 0020 0068     		ldr	r0, [r0]
  59              	.LVL1:
  60              		.loc 1 110 5 is_stmt 0 discriminator 2 view .LVU14
  61 0022 0268     		ldr	r2, [r0]
  62 0024 22F00102 		bic	r2, r2, #1
ARM GAS  C:\Users\DAVID~1.FOB\AppData\Local\Temp\ccvrB5Zl.s 			page 4


  63 0028 0260     		str	r2, [r0]
 111:Drivers/STM32WLxx_HAL_Driver/Src/stm32wlxx_hal_i2c_ex.c **** 
 112:Drivers/STM32WLxx_HAL_Driver/Src/stm32wlxx_hal_i2c_ex.c ****     /* Reset I2Cx ANOFF bit */
 113:Drivers/STM32WLxx_HAL_Driver/Src/stm32wlxx_hal_i2c_ex.c ****     hi2c->Instance->CR1 &= ~(I2C_CR1_ANFOFF);
  64              		.loc 1 113 5 is_stmt 1 discriminator 2 view .LVU15
  65              		.loc 1 113 9 is_stmt 0 discriminator 2 view .LVU16
  66 002a 1868     		ldr	r0, [r3]
  67              		.loc 1 113 19 discriminator 2 view .LVU17
  68 002c 0268     		ldr	r2, [r0]
  69              		.loc 1 113 25 discriminator 2 view .LVU18
  70 002e 22F48052 		bic	r2, r2, #4096
  71 0032 0260     		str	r2, [r0]
 114:Drivers/STM32WLxx_HAL_Driver/Src/stm32wlxx_hal_i2c_ex.c **** 
 115:Drivers/STM32WLxx_HAL_Driver/Src/stm32wlxx_hal_i2c_ex.c ****     /* Set analog filter bit*/
 116:Drivers/STM32WLxx_HAL_Driver/Src/stm32wlxx_hal_i2c_ex.c ****     hi2c->Instance->CR1 |= AnalogFilter;
  72              		.loc 1 116 5 is_stmt 1 discriminator 2 view .LVU19
  73              		.loc 1 116 9 is_stmt 0 discriminator 2 view .LVU20
  74 0034 1868     		ldr	r0, [r3]
  75              		.loc 1 116 19 discriminator 2 view .LVU21
  76 0036 0268     		ldr	r2, [r0]
  77              		.loc 1 116 25 discriminator 2 view .LVU22
  78 0038 1143     		orrs	r1, r1, r2
  79              	.LVL2:
  80              		.loc 1 116 25 discriminator 2 view .LVU23
  81 003a 0160     		str	r1, [r0]
 117:Drivers/STM32WLxx_HAL_Driver/Src/stm32wlxx_hal_i2c_ex.c **** 
 118:Drivers/STM32WLxx_HAL_Driver/Src/stm32wlxx_hal_i2c_ex.c ****     __HAL_I2C_ENABLE(hi2c);
  82              		.loc 1 118 5 is_stmt 1 discriminator 2 view .LVU24
  83 003c 1968     		ldr	r1, [r3]
  84 003e 0A68     		ldr	r2, [r1]
  85 0040 42F00102 		orr	r2, r2, #1
  86 0044 0A60     		str	r2, [r1]
 119:Drivers/STM32WLxx_HAL_Driver/Src/stm32wlxx_hal_i2c_ex.c **** 
 120:Drivers/STM32WLxx_HAL_Driver/Src/stm32wlxx_hal_i2c_ex.c ****     hi2c->State = HAL_I2C_STATE_READY;
  87              		.loc 1 120 5 discriminator 2 view .LVU25
  88              		.loc 1 120 17 is_stmt 0 discriminator 2 view .LVU26
  89 0046 2022     		movs	r2, #32
  90 0048 83F84120 		strb	r2, [r3, #65]
 121:Drivers/STM32WLxx_HAL_Driver/Src/stm32wlxx_hal_i2c_ex.c **** 
 122:Drivers/STM32WLxx_HAL_Driver/Src/stm32wlxx_hal_i2c_ex.c ****     /* Process Unlocked */
 123:Drivers/STM32WLxx_HAL_Driver/Src/stm32wlxx_hal_i2c_ex.c ****     __HAL_UNLOCK(hi2c);
  91              		.loc 1 123 5 is_stmt 1 discriminator 2 view .LVU27
  92              		.loc 1 123 5 discriminator 2 view .LVU28
  93 004c 0020     		movs	r0, #0
  94 004e 83F84000 		strb	r0, [r3, #64]
  95              		.loc 1 123 5 discriminator 2 view .LVU29
 124:Drivers/STM32WLxx_HAL_Driver/Src/stm32wlxx_hal_i2c_ex.c **** 
 125:Drivers/STM32WLxx_HAL_Driver/Src/stm32wlxx_hal_i2c_ex.c ****     return HAL_OK;
  96              		.loc 1 125 5 discriminator 2 view .LVU30
  97              		.loc 1 125 12 is_stmt 0 discriminator 2 view .LVU31
  98 0052 7047     		bx	lr
  99              	.LVL3:
 100              	.L3:
 126:Drivers/STM32WLxx_HAL_Driver/Src/stm32wlxx_hal_i2c_ex.c ****   }
 127:Drivers/STM32WLxx_HAL_Driver/Src/stm32wlxx_hal_i2c_ex.c ****   else
 128:Drivers/STM32WLxx_HAL_Driver/Src/stm32wlxx_hal_i2c_ex.c ****   {
 129:Drivers/STM32WLxx_HAL_Driver/Src/stm32wlxx_hal_i2c_ex.c ****     return HAL_BUSY;
ARM GAS  C:\Users\DAVID~1.FOB\AppData\Local\Temp\ccvrB5Zl.s 			page 5


 101              		.loc 1 129 12 view .LVU32
 102 0054 0220     		movs	r0, #2
 103              	.LVL4:
 104              		.loc 1 129 12 view .LVU33
 105 0056 7047     		bx	lr
 106              	.LVL5:
 107              	.L4:
 105:Drivers/STM32WLxx_HAL_Driver/Src/stm32wlxx_hal_i2c_ex.c **** 
 108              		.loc 1 105 5 view .LVU34
 109 0058 0220     		movs	r0, #2
 110              	.LVL6:
 130:Drivers/STM32WLxx_HAL_Driver/Src/stm32wlxx_hal_i2c_ex.c ****   }
 131:Drivers/STM32WLxx_HAL_Driver/Src/stm32wlxx_hal_i2c_ex.c **** }
 111              		.loc 1 131 1 view .LVU35
 112 005a 7047     		bx	lr
 113              		.cfi_endproc
 114              	.LFE851:
 116              		.section	.text.HAL_I2CEx_ConfigDigitalFilter,"ax",%progbits
 117              		.align	1
 118              		.global	HAL_I2CEx_ConfigDigitalFilter
 119              		.syntax unified
 120              		.thumb
 121              		.thumb_func
 123              	HAL_I2CEx_ConfigDigitalFilter:
 124              	.LVL7:
 125              	.LFB852:
 132:Drivers/STM32WLxx_HAL_Driver/Src/stm32wlxx_hal_i2c_ex.c **** 
 133:Drivers/STM32WLxx_HAL_Driver/Src/stm32wlxx_hal_i2c_ex.c **** /**
 134:Drivers/STM32WLxx_HAL_Driver/Src/stm32wlxx_hal_i2c_ex.c ****   * @brief  Configure I2C Digital noise filter.
 135:Drivers/STM32WLxx_HAL_Driver/Src/stm32wlxx_hal_i2c_ex.c ****   * @param  hi2c Pointer to a I2C_HandleTypeDef structure that contains
 136:Drivers/STM32WLxx_HAL_Driver/Src/stm32wlxx_hal_i2c_ex.c ****   *                the configuration information for the specified I2Cx peripheral.
 137:Drivers/STM32WLxx_HAL_Driver/Src/stm32wlxx_hal_i2c_ex.c ****   * @param  DigitalFilter Coefficient of digital noise filter between Min_Data=0x00 and Max_Data=0x
 138:Drivers/STM32WLxx_HAL_Driver/Src/stm32wlxx_hal_i2c_ex.c ****   * @retval HAL status
 139:Drivers/STM32WLxx_HAL_Driver/Src/stm32wlxx_hal_i2c_ex.c ****   */
 140:Drivers/STM32WLxx_HAL_Driver/Src/stm32wlxx_hal_i2c_ex.c **** HAL_StatusTypeDef HAL_I2CEx_ConfigDigitalFilter(I2C_HandleTypeDef *hi2c, uint32_t DigitalFilter)
 141:Drivers/STM32WLxx_HAL_Driver/Src/stm32wlxx_hal_i2c_ex.c **** {
 126              		.loc 1 141 1 is_stmt 1 view -0
 127              		.cfi_startproc
 128              		@ args = 0, pretend = 0, frame = 0
 129              		@ frame_needed = 0, uses_anonymous_args = 0
 130              		@ link register save eliminated.
 131              		.loc 1 141 1 is_stmt 0 view .LVU37
 132 0000 0346     		mov	r3, r0
 142:Drivers/STM32WLxx_HAL_Driver/Src/stm32wlxx_hal_i2c_ex.c ****   uint32_t tmpreg;
 133              		.loc 1 142 3 is_stmt 1 view .LVU38
 143:Drivers/STM32WLxx_HAL_Driver/Src/stm32wlxx_hal_i2c_ex.c **** 
 144:Drivers/STM32WLxx_HAL_Driver/Src/stm32wlxx_hal_i2c_ex.c ****   /* Check the parameters */
 145:Drivers/STM32WLxx_HAL_Driver/Src/stm32wlxx_hal_i2c_ex.c ****   assert_param(IS_I2C_ALL_INSTANCE(hi2c->Instance));
 134              		.loc 1 145 3 view .LVU39
 146:Drivers/STM32WLxx_HAL_Driver/Src/stm32wlxx_hal_i2c_ex.c ****   assert_param(IS_I2C_DIGITAL_FILTER(DigitalFilter));
 135              		.loc 1 146 3 view .LVU40
 147:Drivers/STM32WLxx_HAL_Driver/Src/stm32wlxx_hal_i2c_ex.c **** 
 148:Drivers/STM32WLxx_HAL_Driver/Src/stm32wlxx_hal_i2c_ex.c ****   if (hi2c->State == HAL_I2C_STATE_READY)
 136              		.loc 1 148 3 view .LVU41
 137              		.loc 1 148 11 is_stmt 0 view .LVU42
 138 0002 90F84120 		ldrb	r2, [r0, #65]	@ zero_extendqisi2
 139 0006 D2B2     		uxtb	r2, r2
ARM GAS  C:\Users\DAVID~1.FOB\AppData\Local\Temp\ccvrB5Zl.s 			page 6


 140              		.loc 1 148 6 view .LVU43
 141 0008 202A     		cmp	r2, #32
 142 000a 21D1     		bne	.L7
 149:Drivers/STM32WLxx_HAL_Driver/Src/stm32wlxx_hal_i2c_ex.c ****   {
 150:Drivers/STM32WLxx_HAL_Driver/Src/stm32wlxx_hal_i2c_ex.c ****     /* Process Locked */
 151:Drivers/STM32WLxx_HAL_Driver/Src/stm32wlxx_hal_i2c_ex.c ****     __HAL_LOCK(hi2c);
 143              		.loc 1 151 5 is_stmt 1 view .LVU44
 144              		.loc 1 151 5 view .LVU45
 145 000c 90F84020 		ldrb	r2, [r0, #64]	@ zero_extendqisi2
 146 0010 012A     		cmp	r2, #1
 147 0012 1FD0     		beq	.L8
 148              		.loc 1 151 5 discriminator 2 view .LVU46
 149 0014 0122     		movs	r2, #1
 150 0016 80F84020 		strb	r2, [r0, #64]
 151              		.loc 1 151 5 discriminator 2 view .LVU47
 152:Drivers/STM32WLxx_HAL_Driver/Src/stm32wlxx_hal_i2c_ex.c **** 
 153:Drivers/STM32WLxx_HAL_Driver/Src/stm32wlxx_hal_i2c_ex.c ****     hi2c->State = HAL_I2C_STATE_BUSY;
 152              		.loc 1 153 5 discriminator 2 view .LVU48
 153              		.loc 1 153 17 is_stmt 0 discriminator 2 view .LVU49
 154 001a 2422     		movs	r2, #36
 155 001c 80F84120 		strb	r2, [r0, #65]
 154:Drivers/STM32WLxx_HAL_Driver/Src/stm32wlxx_hal_i2c_ex.c **** 
 155:Drivers/STM32WLxx_HAL_Driver/Src/stm32wlxx_hal_i2c_ex.c ****     /* Disable the selected I2C peripheral */
 156:Drivers/STM32WLxx_HAL_Driver/Src/stm32wlxx_hal_i2c_ex.c ****     __HAL_I2C_DISABLE(hi2c);
 156              		.loc 1 156 5 is_stmt 1 discriminator 2 view .LVU50
 157 0020 0068     		ldr	r0, [r0]
 158              	.LVL8:
 159              		.loc 1 156 5 is_stmt 0 discriminator 2 view .LVU51
 160 0022 0268     		ldr	r2, [r0]
 161 0024 22F00102 		bic	r2, r2, #1
 162 0028 0260     		str	r2, [r0]
 157:Drivers/STM32WLxx_HAL_Driver/Src/stm32wlxx_hal_i2c_ex.c **** 
 158:Drivers/STM32WLxx_HAL_Driver/Src/stm32wlxx_hal_i2c_ex.c ****     /* Get the old register value */
 159:Drivers/STM32WLxx_HAL_Driver/Src/stm32wlxx_hal_i2c_ex.c ****     tmpreg = hi2c->Instance->CR1;
 163              		.loc 1 159 5 is_stmt 1 discriminator 2 view .LVU52
 164              		.loc 1 159 18 is_stmt 0 discriminator 2 view .LVU53
 165 002a 1868     		ldr	r0, [r3]
 166              		.loc 1 159 12 discriminator 2 view .LVU54
 167 002c 0268     		ldr	r2, [r0]
 168              	.LVL9:
 160:Drivers/STM32WLxx_HAL_Driver/Src/stm32wlxx_hal_i2c_ex.c **** 
 161:Drivers/STM32WLxx_HAL_Driver/Src/stm32wlxx_hal_i2c_ex.c ****     /* Reset I2Cx DNF bits [11:8] */
 162:Drivers/STM32WLxx_HAL_Driver/Src/stm32wlxx_hal_i2c_ex.c ****     tmpreg &= ~(I2C_CR1_DNF);
 169              		.loc 1 162 5 is_stmt 1 discriminator 2 view .LVU55
 170              		.loc 1 162 12 is_stmt 0 discriminator 2 view .LVU56
 171 002e 22F47062 		bic	r2, r2, #3840
 172              	.LVL10:
 163:Drivers/STM32WLxx_HAL_Driver/Src/stm32wlxx_hal_i2c_ex.c **** 
 164:Drivers/STM32WLxx_HAL_Driver/Src/stm32wlxx_hal_i2c_ex.c ****     /* Set I2Cx DNF coefficient */
 165:Drivers/STM32WLxx_HAL_Driver/Src/stm32wlxx_hal_i2c_ex.c ****     tmpreg |= DigitalFilter << 8U;
 173              		.loc 1 165 5 is_stmt 1 discriminator 2 view .LVU57
 174              		.loc 1 165 12 is_stmt 0 discriminator 2 view .LVU58
 175 0032 42EA0122 		orr	r2, r2, r1, lsl #8
 176              	.LVL11:
 166:Drivers/STM32WLxx_HAL_Driver/Src/stm32wlxx_hal_i2c_ex.c **** 
 167:Drivers/STM32WLxx_HAL_Driver/Src/stm32wlxx_hal_i2c_ex.c ****     /* Store the new register value */
 168:Drivers/STM32WLxx_HAL_Driver/Src/stm32wlxx_hal_i2c_ex.c ****     hi2c->Instance->CR1 = tmpreg;
ARM GAS  C:\Users\DAVID~1.FOB\AppData\Local\Temp\ccvrB5Zl.s 			page 7


 177              		.loc 1 168 5 is_stmt 1 discriminator 2 view .LVU59
 178              		.loc 1 168 25 is_stmt 0 discriminator 2 view .LVU60
 179 0036 0260     		str	r2, [r0]
 169:Drivers/STM32WLxx_HAL_Driver/Src/stm32wlxx_hal_i2c_ex.c **** 
 170:Drivers/STM32WLxx_HAL_Driver/Src/stm32wlxx_hal_i2c_ex.c ****     __HAL_I2C_ENABLE(hi2c);
 180              		.loc 1 170 5 is_stmt 1 discriminator 2 view .LVU61
 181 0038 1968     		ldr	r1, [r3]
 182              	.LVL12:
 183              		.loc 1 170 5 is_stmt 0 discriminator 2 view .LVU62
 184 003a 0A68     		ldr	r2, [r1]
 185              	.LVL13:
 186              		.loc 1 170 5 discriminator 2 view .LVU63
 187 003c 42F00102 		orr	r2, r2, #1
 188 0040 0A60     		str	r2, [r1]
 189              	.LVL14:
 171:Drivers/STM32WLxx_HAL_Driver/Src/stm32wlxx_hal_i2c_ex.c **** 
 172:Drivers/STM32WLxx_HAL_Driver/Src/stm32wlxx_hal_i2c_ex.c ****     hi2c->State = HAL_I2C_STATE_READY;
 190              		.loc 1 172 5 is_stmt 1 discriminator 2 view .LVU64
 191              		.loc 1 172 17 is_stmt 0 discriminator 2 view .LVU65
 192 0042 2022     		movs	r2, #32
 193 0044 83F84120 		strb	r2, [r3, #65]
 173:Drivers/STM32WLxx_HAL_Driver/Src/stm32wlxx_hal_i2c_ex.c **** 
 174:Drivers/STM32WLxx_HAL_Driver/Src/stm32wlxx_hal_i2c_ex.c ****     /* Process Unlocked */
 175:Drivers/STM32WLxx_HAL_Driver/Src/stm32wlxx_hal_i2c_ex.c ****     __HAL_UNLOCK(hi2c);
 194              		.loc 1 175 5 is_stmt 1 discriminator 2 view .LVU66
 195              		.loc 1 175 5 discriminator 2 view .LVU67
 196 0048 0020     		movs	r0, #0
 197 004a 83F84000 		strb	r0, [r3, #64]
 198              		.loc 1 175 5 discriminator 2 view .LVU68
 176:Drivers/STM32WLxx_HAL_Driver/Src/stm32wlxx_hal_i2c_ex.c **** 
 177:Drivers/STM32WLxx_HAL_Driver/Src/stm32wlxx_hal_i2c_ex.c ****     return HAL_OK;
 199              		.loc 1 177 5 discriminator 2 view .LVU69
 200              		.loc 1 177 12 is_stmt 0 discriminator 2 view .LVU70
 201 004e 7047     		bx	lr
 202              	.LVL15:
 203              	.L7:
 178:Drivers/STM32WLxx_HAL_Driver/Src/stm32wlxx_hal_i2c_ex.c ****   }
 179:Drivers/STM32WLxx_HAL_Driver/Src/stm32wlxx_hal_i2c_ex.c ****   else
 180:Drivers/STM32WLxx_HAL_Driver/Src/stm32wlxx_hal_i2c_ex.c ****   {
 181:Drivers/STM32WLxx_HAL_Driver/Src/stm32wlxx_hal_i2c_ex.c ****     return HAL_BUSY;
 204              		.loc 1 181 12 view .LVU71
 205 0050 0220     		movs	r0, #2
 206              	.LVL16:
 207              		.loc 1 181 12 view .LVU72
 208 0052 7047     		bx	lr
 209              	.LVL17:
 210              	.L8:
 151:Drivers/STM32WLxx_HAL_Driver/Src/stm32wlxx_hal_i2c_ex.c **** 
 211              		.loc 1 151 5 view .LVU73
 212 0054 0220     		movs	r0, #2
 213              	.LVL18:
 182:Drivers/STM32WLxx_HAL_Driver/Src/stm32wlxx_hal_i2c_ex.c ****   }
 183:Drivers/STM32WLxx_HAL_Driver/Src/stm32wlxx_hal_i2c_ex.c **** }
 214              		.loc 1 183 1 view .LVU74
 215 0056 7047     		bx	lr
 216              		.cfi_endproc
 217              	.LFE852:
ARM GAS  C:\Users\DAVID~1.FOB\AppData\Local\Temp\ccvrB5Zl.s 			page 8


 219              		.section	.text.HAL_I2CEx_EnableWakeUp,"ax",%progbits
 220              		.align	1
 221              		.global	HAL_I2CEx_EnableWakeUp
 222              		.syntax unified
 223              		.thumb
 224              		.thumb_func
 226              	HAL_I2CEx_EnableWakeUp:
 227              	.LVL19:
 228              	.LFB853:
 184:Drivers/STM32WLxx_HAL_Driver/Src/stm32wlxx_hal_i2c_ex.c **** /**
 185:Drivers/STM32WLxx_HAL_Driver/Src/stm32wlxx_hal_i2c_ex.c ****   * @}
 186:Drivers/STM32WLxx_HAL_Driver/Src/stm32wlxx_hal_i2c_ex.c ****   */
 187:Drivers/STM32WLxx_HAL_Driver/Src/stm32wlxx_hal_i2c_ex.c **** 
 188:Drivers/STM32WLxx_HAL_Driver/Src/stm32wlxx_hal_i2c_ex.c **** /** @defgroup I2CEx_Exported_Functions_Group2 WakeUp Mode Functions
 189:Drivers/STM32WLxx_HAL_Driver/Src/stm32wlxx_hal_i2c_ex.c ****   * @brief    WakeUp Mode Functions
 190:Drivers/STM32WLxx_HAL_Driver/Src/stm32wlxx_hal_i2c_ex.c ****   *
 191:Drivers/STM32WLxx_HAL_Driver/Src/stm32wlxx_hal_i2c_ex.c **** @verbatim
 192:Drivers/STM32WLxx_HAL_Driver/Src/stm32wlxx_hal_i2c_ex.c ****  ===============================================================================
 193:Drivers/STM32WLxx_HAL_Driver/Src/stm32wlxx_hal_i2c_ex.c ****                       ##### WakeUp Mode Functions #####
 194:Drivers/STM32WLxx_HAL_Driver/Src/stm32wlxx_hal_i2c_ex.c ****  ===============================================================================
 195:Drivers/STM32WLxx_HAL_Driver/Src/stm32wlxx_hal_i2c_ex.c ****     [..] This section provides functions allowing to:
 196:Drivers/STM32WLxx_HAL_Driver/Src/stm32wlxx_hal_i2c_ex.c ****       (+) Configure Wake Up Feature
 197:Drivers/STM32WLxx_HAL_Driver/Src/stm32wlxx_hal_i2c_ex.c **** 
 198:Drivers/STM32WLxx_HAL_Driver/Src/stm32wlxx_hal_i2c_ex.c **** @endverbatim
 199:Drivers/STM32WLxx_HAL_Driver/Src/stm32wlxx_hal_i2c_ex.c ****   * @{
 200:Drivers/STM32WLxx_HAL_Driver/Src/stm32wlxx_hal_i2c_ex.c ****   */
 201:Drivers/STM32WLxx_HAL_Driver/Src/stm32wlxx_hal_i2c_ex.c **** 
 202:Drivers/STM32WLxx_HAL_Driver/Src/stm32wlxx_hal_i2c_ex.c **** /**
 203:Drivers/STM32WLxx_HAL_Driver/Src/stm32wlxx_hal_i2c_ex.c ****   * @brief  Enable I2C wakeup from Stop mode(s).
 204:Drivers/STM32WLxx_HAL_Driver/Src/stm32wlxx_hal_i2c_ex.c ****   * @param  hi2c Pointer to a I2C_HandleTypeDef structure that contains
 205:Drivers/STM32WLxx_HAL_Driver/Src/stm32wlxx_hal_i2c_ex.c ****   *                the configuration information for the specified I2Cx peripheral.
 206:Drivers/STM32WLxx_HAL_Driver/Src/stm32wlxx_hal_i2c_ex.c ****   * @retval HAL status
 207:Drivers/STM32WLxx_HAL_Driver/Src/stm32wlxx_hal_i2c_ex.c ****   */
 208:Drivers/STM32WLxx_HAL_Driver/Src/stm32wlxx_hal_i2c_ex.c **** HAL_StatusTypeDef HAL_I2CEx_EnableWakeUp(I2C_HandleTypeDef *hi2c)
 209:Drivers/STM32WLxx_HAL_Driver/Src/stm32wlxx_hal_i2c_ex.c **** {
 229              		.loc 1 209 1 is_stmt 1 view -0
 230              		.cfi_startproc
 231              		@ args = 0, pretend = 0, frame = 0
 232              		@ frame_needed = 0, uses_anonymous_args = 0
 233              		@ link register save eliminated.
 234              		.loc 1 209 1 is_stmt 0 view .LVU76
 235 0000 0346     		mov	r3, r0
 210:Drivers/STM32WLxx_HAL_Driver/Src/stm32wlxx_hal_i2c_ex.c ****   /* Check the parameters */
 211:Drivers/STM32WLxx_HAL_Driver/Src/stm32wlxx_hal_i2c_ex.c ****   assert_param(IS_I2C_WAKEUP_FROMSTOP_INSTANCE(hi2c->Instance));
 236              		.loc 1 211 3 is_stmt 1 view .LVU77
 212:Drivers/STM32WLxx_HAL_Driver/Src/stm32wlxx_hal_i2c_ex.c **** 
 213:Drivers/STM32WLxx_HAL_Driver/Src/stm32wlxx_hal_i2c_ex.c ****   if (hi2c->State == HAL_I2C_STATE_READY)
 237              		.loc 1 213 3 view .LVU78
 238              		.loc 1 213 11 is_stmt 0 view .LVU79
 239 0002 90F84120 		ldrb	r2, [r0, #65]	@ zero_extendqisi2
 240 0006 D2B2     		uxtb	r2, r2
 241              		.loc 1 213 6 view .LVU80
 242 0008 202A     		cmp	r2, #32
 243 000a 1FD1     		bne	.L11
 214:Drivers/STM32WLxx_HAL_Driver/Src/stm32wlxx_hal_i2c_ex.c ****   {
 215:Drivers/STM32WLxx_HAL_Driver/Src/stm32wlxx_hal_i2c_ex.c ****     /* Process Locked */
 216:Drivers/STM32WLxx_HAL_Driver/Src/stm32wlxx_hal_i2c_ex.c ****     __HAL_LOCK(hi2c);
ARM GAS  C:\Users\DAVID~1.FOB\AppData\Local\Temp\ccvrB5Zl.s 			page 9


 244              		.loc 1 216 5 is_stmt 1 view .LVU81
 245              		.loc 1 216 5 view .LVU82
 246 000c 90F84020 		ldrb	r2, [r0, #64]	@ zero_extendqisi2
 247 0010 012A     		cmp	r2, #1
 248 0012 1DD0     		beq	.L12
 249              		.loc 1 216 5 discriminator 2 view .LVU83
 250 0014 0122     		movs	r2, #1
 251 0016 80F84020 		strb	r2, [r0, #64]
 252              		.loc 1 216 5 discriminator 2 view .LVU84
 217:Drivers/STM32WLxx_HAL_Driver/Src/stm32wlxx_hal_i2c_ex.c **** 
 218:Drivers/STM32WLxx_HAL_Driver/Src/stm32wlxx_hal_i2c_ex.c ****     hi2c->State = HAL_I2C_STATE_BUSY;
 253              		.loc 1 218 5 discriminator 2 view .LVU85
 254              		.loc 1 218 17 is_stmt 0 discriminator 2 view .LVU86
 255 001a 2422     		movs	r2, #36
 256 001c 80F84120 		strb	r2, [r0, #65]
 219:Drivers/STM32WLxx_HAL_Driver/Src/stm32wlxx_hal_i2c_ex.c **** 
 220:Drivers/STM32WLxx_HAL_Driver/Src/stm32wlxx_hal_i2c_ex.c ****     /* Disable the selected I2C peripheral */
 221:Drivers/STM32WLxx_HAL_Driver/Src/stm32wlxx_hal_i2c_ex.c ****     __HAL_I2C_DISABLE(hi2c);
 257              		.loc 1 221 5 is_stmt 1 discriminator 2 view .LVU87
 258 0020 0168     		ldr	r1, [r0]
 259 0022 0A68     		ldr	r2, [r1]
 260 0024 22F00102 		bic	r2, r2, #1
 261 0028 0A60     		str	r2, [r1]
 222:Drivers/STM32WLxx_HAL_Driver/Src/stm32wlxx_hal_i2c_ex.c **** 
 223:Drivers/STM32WLxx_HAL_Driver/Src/stm32wlxx_hal_i2c_ex.c ****     /* Enable wakeup from stop mode */
 224:Drivers/STM32WLxx_HAL_Driver/Src/stm32wlxx_hal_i2c_ex.c ****     hi2c->Instance->CR1 |= I2C_CR1_WUPEN;
 262              		.loc 1 224 5 discriminator 2 view .LVU88
 263              		.loc 1 224 9 is_stmt 0 discriminator 2 view .LVU89
 264 002a 0168     		ldr	r1, [r0]
 265              		.loc 1 224 19 discriminator 2 view .LVU90
 266 002c 0A68     		ldr	r2, [r1]
 267              		.loc 1 224 25 discriminator 2 view .LVU91
 268 002e 42F48022 		orr	r2, r2, #262144
 269 0032 0A60     		str	r2, [r1]
 225:Drivers/STM32WLxx_HAL_Driver/Src/stm32wlxx_hal_i2c_ex.c **** 
 226:Drivers/STM32WLxx_HAL_Driver/Src/stm32wlxx_hal_i2c_ex.c ****     __HAL_I2C_ENABLE(hi2c);
 270              		.loc 1 226 5 is_stmt 1 discriminator 2 view .LVU92
 271 0034 0168     		ldr	r1, [r0]
 272 0036 0A68     		ldr	r2, [r1]
 273 0038 42F00102 		orr	r2, r2, #1
 274 003c 0A60     		str	r2, [r1]
 227:Drivers/STM32WLxx_HAL_Driver/Src/stm32wlxx_hal_i2c_ex.c **** 
 228:Drivers/STM32WLxx_HAL_Driver/Src/stm32wlxx_hal_i2c_ex.c ****     hi2c->State = HAL_I2C_STATE_READY;
 275              		.loc 1 228 5 discriminator 2 view .LVU93
 276              		.loc 1 228 17 is_stmt 0 discriminator 2 view .LVU94
 277 003e 2022     		movs	r2, #32
 278 0040 80F84120 		strb	r2, [r0, #65]
 229:Drivers/STM32WLxx_HAL_Driver/Src/stm32wlxx_hal_i2c_ex.c **** 
 230:Drivers/STM32WLxx_HAL_Driver/Src/stm32wlxx_hal_i2c_ex.c ****     /* Process Unlocked */
 231:Drivers/STM32WLxx_HAL_Driver/Src/stm32wlxx_hal_i2c_ex.c ****     __HAL_UNLOCK(hi2c);
 279              		.loc 1 231 5 is_stmt 1 discriminator 2 view .LVU95
 280              		.loc 1 231 5 discriminator 2 view .LVU96
 281 0044 0020     		movs	r0, #0
 282              	.LVL20:
 283              		.loc 1 231 5 is_stmt 0 discriminator 2 view .LVU97
 284 0046 83F84000 		strb	r0, [r3, #64]
 285              		.loc 1 231 5 is_stmt 1 discriminator 2 view .LVU98
ARM GAS  C:\Users\DAVID~1.FOB\AppData\Local\Temp\ccvrB5Zl.s 			page 10


 232:Drivers/STM32WLxx_HAL_Driver/Src/stm32wlxx_hal_i2c_ex.c **** 
 233:Drivers/STM32WLxx_HAL_Driver/Src/stm32wlxx_hal_i2c_ex.c ****     return HAL_OK;
 286              		.loc 1 233 5 discriminator 2 view .LVU99
 287              		.loc 1 233 12 is_stmt 0 discriminator 2 view .LVU100
 288 004a 7047     		bx	lr
 289              	.LVL21:
 290              	.L11:
 234:Drivers/STM32WLxx_HAL_Driver/Src/stm32wlxx_hal_i2c_ex.c ****   }
 235:Drivers/STM32WLxx_HAL_Driver/Src/stm32wlxx_hal_i2c_ex.c ****   else
 236:Drivers/STM32WLxx_HAL_Driver/Src/stm32wlxx_hal_i2c_ex.c ****   {
 237:Drivers/STM32WLxx_HAL_Driver/Src/stm32wlxx_hal_i2c_ex.c ****     return HAL_BUSY;
 291              		.loc 1 237 12 view .LVU101
 292 004c 0220     		movs	r0, #2
 293              	.LVL22:
 294              		.loc 1 237 12 view .LVU102
 295 004e 7047     		bx	lr
 296              	.LVL23:
 297              	.L12:
 216:Drivers/STM32WLxx_HAL_Driver/Src/stm32wlxx_hal_i2c_ex.c **** 
 298              		.loc 1 216 5 view .LVU103
 299 0050 0220     		movs	r0, #2
 300              	.LVL24:
 238:Drivers/STM32WLxx_HAL_Driver/Src/stm32wlxx_hal_i2c_ex.c ****   }
 239:Drivers/STM32WLxx_HAL_Driver/Src/stm32wlxx_hal_i2c_ex.c **** }
 301              		.loc 1 239 1 view .LVU104
 302 0052 7047     		bx	lr
 303              		.cfi_endproc
 304              	.LFE853:
 306              		.section	.text.HAL_I2CEx_DisableWakeUp,"ax",%progbits
 307              		.align	1
 308              		.global	HAL_I2CEx_DisableWakeUp
 309              		.syntax unified
 310              		.thumb
 311              		.thumb_func
 313              	HAL_I2CEx_DisableWakeUp:
 314              	.LVL25:
 315              	.LFB854:
 240:Drivers/STM32WLxx_HAL_Driver/Src/stm32wlxx_hal_i2c_ex.c **** 
 241:Drivers/STM32WLxx_HAL_Driver/Src/stm32wlxx_hal_i2c_ex.c **** /**
 242:Drivers/STM32WLxx_HAL_Driver/Src/stm32wlxx_hal_i2c_ex.c ****   * @brief  Disable I2C wakeup from Stop mode(s).
 243:Drivers/STM32WLxx_HAL_Driver/Src/stm32wlxx_hal_i2c_ex.c ****   * @param  hi2c Pointer to a I2C_HandleTypeDef structure that contains
 244:Drivers/STM32WLxx_HAL_Driver/Src/stm32wlxx_hal_i2c_ex.c ****   *                the configuration information for the specified I2Cx peripheral.
 245:Drivers/STM32WLxx_HAL_Driver/Src/stm32wlxx_hal_i2c_ex.c ****   * @retval HAL status
 246:Drivers/STM32WLxx_HAL_Driver/Src/stm32wlxx_hal_i2c_ex.c ****   */
 247:Drivers/STM32WLxx_HAL_Driver/Src/stm32wlxx_hal_i2c_ex.c **** HAL_StatusTypeDef HAL_I2CEx_DisableWakeUp(I2C_HandleTypeDef *hi2c)
 248:Drivers/STM32WLxx_HAL_Driver/Src/stm32wlxx_hal_i2c_ex.c **** {
 316              		.loc 1 248 1 is_stmt 1 view -0
 317              		.cfi_startproc
 318              		@ args = 0, pretend = 0, frame = 0
 319              		@ frame_needed = 0, uses_anonymous_args = 0
 320              		@ link register save eliminated.
 321              		.loc 1 248 1 is_stmt 0 view .LVU106
 322 0000 0346     		mov	r3, r0
 249:Drivers/STM32WLxx_HAL_Driver/Src/stm32wlxx_hal_i2c_ex.c ****   /* Check the parameters */
 250:Drivers/STM32WLxx_HAL_Driver/Src/stm32wlxx_hal_i2c_ex.c ****   assert_param(IS_I2C_WAKEUP_FROMSTOP_INSTANCE(hi2c->Instance));
 323              		.loc 1 250 3 is_stmt 1 view .LVU107
 251:Drivers/STM32WLxx_HAL_Driver/Src/stm32wlxx_hal_i2c_ex.c **** 
ARM GAS  C:\Users\DAVID~1.FOB\AppData\Local\Temp\ccvrB5Zl.s 			page 11


 252:Drivers/STM32WLxx_HAL_Driver/Src/stm32wlxx_hal_i2c_ex.c ****   if (hi2c->State == HAL_I2C_STATE_READY)
 324              		.loc 1 252 3 view .LVU108
 325              		.loc 1 252 11 is_stmt 0 view .LVU109
 326 0002 90F84120 		ldrb	r2, [r0, #65]	@ zero_extendqisi2
 327 0006 D2B2     		uxtb	r2, r2
 328              		.loc 1 252 6 view .LVU110
 329 0008 202A     		cmp	r2, #32
 330 000a 1FD1     		bne	.L15
 253:Drivers/STM32WLxx_HAL_Driver/Src/stm32wlxx_hal_i2c_ex.c ****   {
 254:Drivers/STM32WLxx_HAL_Driver/Src/stm32wlxx_hal_i2c_ex.c ****     /* Process Locked */
 255:Drivers/STM32WLxx_HAL_Driver/Src/stm32wlxx_hal_i2c_ex.c ****     __HAL_LOCK(hi2c);
 331              		.loc 1 255 5 is_stmt 1 view .LVU111
 332              		.loc 1 255 5 view .LVU112
 333 000c 90F84020 		ldrb	r2, [r0, #64]	@ zero_extendqisi2
 334 0010 012A     		cmp	r2, #1
 335 0012 1DD0     		beq	.L16
 336              		.loc 1 255 5 discriminator 2 view .LVU113
 337 0014 0122     		movs	r2, #1
 338 0016 80F84020 		strb	r2, [r0, #64]
 339              		.loc 1 255 5 discriminator 2 view .LVU114
 256:Drivers/STM32WLxx_HAL_Driver/Src/stm32wlxx_hal_i2c_ex.c **** 
 257:Drivers/STM32WLxx_HAL_Driver/Src/stm32wlxx_hal_i2c_ex.c ****     hi2c->State = HAL_I2C_STATE_BUSY;
 340              		.loc 1 257 5 discriminator 2 view .LVU115
 341              		.loc 1 257 17 is_stmt 0 discriminator 2 view .LVU116
 342 001a 2422     		movs	r2, #36
 343 001c 80F84120 		strb	r2, [r0, #65]
 258:Drivers/STM32WLxx_HAL_Driver/Src/stm32wlxx_hal_i2c_ex.c **** 
 259:Drivers/STM32WLxx_HAL_Driver/Src/stm32wlxx_hal_i2c_ex.c ****     /* Disable the selected I2C peripheral */
 260:Drivers/STM32WLxx_HAL_Driver/Src/stm32wlxx_hal_i2c_ex.c ****     __HAL_I2C_DISABLE(hi2c);
 344              		.loc 1 260 5 is_stmt 1 discriminator 2 view .LVU117
 345 0020 0168     		ldr	r1, [r0]
 346 0022 0A68     		ldr	r2, [r1]
 347 0024 22F00102 		bic	r2, r2, #1
 348 0028 0A60     		str	r2, [r1]
 261:Drivers/STM32WLxx_HAL_Driver/Src/stm32wlxx_hal_i2c_ex.c **** 
 262:Drivers/STM32WLxx_HAL_Driver/Src/stm32wlxx_hal_i2c_ex.c ****     /* Enable wakeup from stop mode */
 263:Drivers/STM32WLxx_HAL_Driver/Src/stm32wlxx_hal_i2c_ex.c ****     hi2c->Instance->CR1 &= ~(I2C_CR1_WUPEN);
 349              		.loc 1 263 5 discriminator 2 view .LVU118
 350              		.loc 1 263 9 is_stmt 0 discriminator 2 view .LVU119
 351 002a 0168     		ldr	r1, [r0]
 352              		.loc 1 263 19 discriminator 2 view .LVU120
 353 002c 0A68     		ldr	r2, [r1]
 354              		.loc 1 263 25 discriminator 2 view .LVU121
 355 002e 22F48022 		bic	r2, r2, #262144
 356 0032 0A60     		str	r2, [r1]
 264:Drivers/STM32WLxx_HAL_Driver/Src/stm32wlxx_hal_i2c_ex.c **** 
 265:Drivers/STM32WLxx_HAL_Driver/Src/stm32wlxx_hal_i2c_ex.c ****     __HAL_I2C_ENABLE(hi2c);
 357              		.loc 1 265 5 is_stmt 1 discriminator 2 view .LVU122
 358 0034 0168     		ldr	r1, [r0]
 359 0036 0A68     		ldr	r2, [r1]
 360 0038 42F00102 		orr	r2, r2, #1
 361 003c 0A60     		str	r2, [r1]
 266:Drivers/STM32WLxx_HAL_Driver/Src/stm32wlxx_hal_i2c_ex.c **** 
 267:Drivers/STM32WLxx_HAL_Driver/Src/stm32wlxx_hal_i2c_ex.c ****     hi2c->State = HAL_I2C_STATE_READY;
 362              		.loc 1 267 5 discriminator 2 view .LVU123
 363              		.loc 1 267 17 is_stmt 0 discriminator 2 view .LVU124
 364 003e 2022     		movs	r2, #32
ARM GAS  C:\Users\DAVID~1.FOB\AppData\Local\Temp\ccvrB5Zl.s 			page 12


 365 0040 80F84120 		strb	r2, [r0, #65]
 268:Drivers/STM32WLxx_HAL_Driver/Src/stm32wlxx_hal_i2c_ex.c **** 
 269:Drivers/STM32WLxx_HAL_Driver/Src/stm32wlxx_hal_i2c_ex.c ****     /* Process Unlocked */
 270:Drivers/STM32WLxx_HAL_Driver/Src/stm32wlxx_hal_i2c_ex.c ****     __HAL_UNLOCK(hi2c);
 366              		.loc 1 270 5 is_stmt 1 discriminator 2 view .LVU125
 367              		.loc 1 270 5 discriminator 2 view .LVU126
 368 0044 0020     		movs	r0, #0
 369              	.LVL26:
 370              		.loc 1 270 5 is_stmt 0 discriminator 2 view .LVU127
 371 0046 83F84000 		strb	r0, [r3, #64]
 372              		.loc 1 270 5 is_stmt 1 discriminator 2 view .LVU128
 271:Drivers/STM32WLxx_HAL_Driver/Src/stm32wlxx_hal_i2c_ex.c **** 
 272:Drivers/STM32WLxx_HAL_Driver/Src/stm32wlxx_hal_i2c_ex.c ****     return HAL_OK;
 373              		.loc 1 272 5 discriminator 2 view .LVU129
 374              		.loc 1 272 12 is_stmt 0 discriminator 2 view .LVU130
 375 004a 7047     		bx	lr
 376              	.LVL27:
 377              	.L15:
 273:Drivers/STM32WLxx_HAL_Driver/Src/stm32wlxx_hal_i2c_ex.c ****   }
 274:Drivers/STM32WLxx_HAL_Driver/Src/stm32wlxx_hal_i2c_ex.c ****   else
 275:Drivers/STM32WLxx_HAL_Driver/Src/stm32wlxx_hal_i2c_ex.c ****   {
 276:Drivers/STM32WLxx_HAL_Driver/Src/stm32wlxx_hal_i2c_ex.c ****     return HAL_BUSY;
 378              		.loc 1 276 12 view .LVU131
 379 004c 0220     		movs	r0, #2
 380              	.LVL28:
 381              		.loc 1 276 12 view .LVU132
 382 004e 7047     		bx	lr
 383              	.LVL29:
 384              	.L16:
 255:Drivers/STM32WLxx_HAL_Driver/Src/stm32wlxx_hal_i2c_ex.c **** 
 385              		.loc 1 255 5 view .LVU133
 386 0050 0220     		movs	r0, #2
 387              	.LVL30:
 277:Drivers/STM32WLxx_HAL_Driver/Src/stm32wlxx_hal_i2c_ex.c ****   }
 278:Drivers/STM32WLxx_HAL_Driver/Src/stm32wlxx_hal_i2c_ex.c **** }
 388              		.loc 1 278 1 view .LVU134
 389 0052 7047     		bx	lr
 390              		.cfi_endproc
 391              	.LFE854:
 393              		.section	.text.HAL_I2CEx_EnableFastModePlus,"ax",%progbits
 394              		.align	1
 395              		.global	HAL_I2CEx_EnableFastModePlus
 396              		.syntax unified
 397              		.thumb
 398              		.thumb_func
 400              	HAL_I2CEx_EnableFastModePlus:
 401              	.LVL31:
 402              	.LFB855:
 279:Drivers/STM32WLxx_HAL_Driver/Src/stm32wlxx_hal_i2c_ex.c **** /**
 280:Drivers/STM32WLxx_HAL_Driver/Src/stm32wlxx_hal_i2c_ex.c ****   * @}
 281:Drivers/STM32WLxx_HAL_Driver/Src/stm32wlxx_hal_i2c_ex.c ****   */
 282:Drivers/STM32WLxx_HAL_Driver/Src/stm32wlxx_hal_i2c_ex.c **** 
 283:Drivers/STM32WLxx_HAL_Driver/Src/stm32wlxx_hal_i2c_ex.c **** /** @defgroup I2CEx_Exported_Functions_Group3 Fast Mode Plus Functions
 284:Drivers/STM32WLxx_HAL_Driver/Src/stm32wlxx_hal_i2c_ex.c ****   * @brief    Fast Mode Plus Functions
 285:Drivers/STM32WLxx_HAL_Driver/Src/stm32wlxx_hal_i2c_ex.c ****   *
 286:Drivers/STM32WLxx_HAL_Driver/Src/stm32wlxx_hal_i2c_ex.c **** @verbatim
 287:Drivers/STM32WLxx_HAL_Driver/Src/stm32wlxx_hal_i2c_ex.c ****  ===============================================================================
ARM GAS  C:\Users\DAVID~1.FOB\AppData\Local\Temp\ccvrB5Zl.s 			page 13


 288:Drivers/STM32WLxx_HAL_Driver/Src/stm32wlxx_hal_i2c_ex.c ****                       ##### Fast Mode Plus Functions #####
 289:Drivers/STM32WLxx_HAL_Driver/Src/stm32wlxx_hal_i2c_ex.c ****  ===============================================================================
 290:Drivers/STM32WLxx_HAL_Driver/Src/stm32wlxx_hal_i2c_ex.c ****     [..] This section provides functions allowing to:
 291:Drivers/STM32WLxx_HAL_Driver/Src/stm32wlxx_hal_i2c_ex.c ****       (+) Configure Fast Mode Plus
 292:Drivers/STM32WLxx_HAL_Driver/Src/stm32wlxx_hal_i2c_ex.c **** 
 293:Drivers/STM32WLxx_HAL_Driver/Src/stm32wlxx_hal_i2c_ex.c **** @endverbatim
 294:Drivers/STM32WLxx_HAL_Driver/Src/stm32wlxx_hal_i2c_ex.c ****   * @{
 295:Drivers/STM32WLxx_HAL_Driver/Src/stm32wlxx_hal_i2c_ex.c ****   */
 296:Drivers/STM32WLxx_HAL_Driver/Src/stm32wlxx_hal_i2c_ex.c **** 
 297:Drivers/STM32WLxx_HAL_Driver/Src/stm32wlxx_hal_i2c_ex.c **** /**
 298:Drivers/STM32WLxx_HAL_Driver/Src/stm32wlxx_hal_i2c_ex.c ****   * @brief Enable the I2C fast mode plus driving capability.
 299:Drivers/STM32WLxx_HAL_Driver/Src/stm32wlxx_hal_i2c_ex.c ****   * @param ConfigFastModePlus Selects the pin.
 300:Drivers/STM32WLxx_HAL_Driver/Src/stm32wlxx_hal_i2c_ex.c ****   *   This parameter can be one of the @ref I2CEx_FastModePlus values
 301:Drivers/STM32WLxx_HAL_Driver/Src/stm32wlxx_hal_i2c_ex.c ****   * @note  For I2C1, fast mode plus driving capability can be enabled on all selected
 302:Drivers/STM32WLxx_HAL_Driver/Src/stm32wlxx_hal_i2c_ex.c ****   *        I2C1 pins using I2C_FASTMODEPLUS_I2C1 parameter or independently
 303:Drivers/STM32WLxx_HAL_Driver/Src/stm32wlxx_hal_i2c_ex.c ****   *        on each one of the following pins PB6, PB7, PB8 and PB9.
 304:Drivers/STM32WLxx_HAL_Driver/Src/stm32wlxx_hal_i2c_ex.c ****   * @note  For remaining I2C1 pins (PA14, PA15...) fast mode plus driving capability
 305:Drivers/STM32WLxx_HAL_Driver/Src/stm32wlxx_hal_i2c_ex.c ****   *        can be enabled only by using I2C_FASTMODEPLUS_I2C1 parameter.
 306:Drivers/STM32WLxx_HAL_Driver/Src/stm32wlxx_hal_i2c_ex.c ****   * @note  For all I2C2 pins fast mode plus driving capability can be enabled
 307:Drivers/STM32WLxx_HAL_Driver/Src/stm32wlxx_hal_i2c_ex.c ****   *        only by using I2C_FASTMODEPLUS_I2C2 parameter.
 308:Drivers/STM32WLxx_HAL_Driver/Src/stm32wlxx_hal_i2c_ex.c ****   * @note  For all I2C3 pins fast mode plus driving capability can be enabled
 309:Drivers/STM32WLxx_HAL_Driver/Src/stm32wlxx_hal_i2c_ex.c ****   *        only by using I2C_FASTMODEPLUS_I2C3 parameter.
 310:Drivers/STM32WLxx_HAL_Driver/Src/stm32wlxx_hal_i2c_ex.c ****   * @retval None
 311:Drivers/STM32WLxx_HAL_Driver/Src/stm32wlxx_hal_i2c_ex.c ****   */
 312:Drivers/STM32WLxx_HAL_Driver/Src/stm32wlxx_hal_i2c_ex.c **** void HAL_I2CEx_EnableFastModePlus(uint32_t ConfigFastModePlus)
 313:Drivers/STM32WLxx_HAL_Driver/Src/stm32wlxx_hal_i2c_ex.c **** {
 403              		.loc 1 313 1 is_stmt 1 view -0
 404              		.cfi_startproc
 405              		@ args = 0, pretend = 0, frame = 0
 406              		@ frame_needed = 0, uses_anonymous_args = 0
 407              		@ link register save eliminated.
 314:Drivers/STM32WLxx_HAL_Driver/Src/stm32wlxx_hal_i2c_ex.c ****   /* Check the parameter */
 315:Drivers/STM32WLxx_HAL_Driver/Src/stm32wlxx_hal_i2c_ex.c ****   assert_param(IS_I2C_FASTMODEPLUS(ConfigFastModePlus));
 408              		.loc 1 315 3 view .LVU136
 316:Drivers/STM32WLxx_HAL_Driver/Src/stm32wlxx_hal_i2c_ex.c **** 
 317:Drivers/STM32WLxx_HAL_Driver/Src/stm32wlxx_hal_i2c_ex.c ****   /* Enable fast mode plus driving capability for selected pin */
 318:Drivers/STM32WLxx_HAL_Driver/Src/stm32wlxx_hal_i2c_ex.c ****   SET_BIT(SYSCFG->CFGR1, (uint32_t)ConfigFastModePlus);
 409              		.loc 1 318 3 view .LVU137
 410 0000 024A     		ldr	r2, .L18
 411 0002 5368     		ldr	r3, [r2, #4]
 412 0004 0343     		orrs	r3, r3, r0
 413 0006 5360     		str	r3, [r2, #4]
 319:Drivers/STM32WLxx_HAL_Driver/Src/stm32wlxx_hal_i2c_ex.c **** }
 414              		.loc 1 319 1 is_stmt 0 view .LVU138
 415 0008 7047     		bx	lr
 416              	.L19:
 417 000a 00BF     		.align	2
 418              	.L18:
 419 000c 00000140 		.word	1073807360
 420              		.cfi_endproc
 421              	.LFE855:
 423              		.section	.text.HAL_I2CEx_DisableFastModePlus,"ax",%progbits
 424              		.align	1
 425              		.global	HAL_I2CEx_DisableFastModePlus
 426              		.syntax unified
 427              		.thumb
 428              		.thumb_func
ARM GAS  C:\Users\DAVID~1.FOB\AppData\Local\Temp\ccvrB5Zl.s 			page 14


 430              	HAL_I2CEx_DisableFastModePlus:
 431              	.LVL32:
 432              	.LFB856:
 320:Drivers/STM32WLxx_HAL_Driver/Src/stm32wlxx_hal_i2c_ex.c **** 
 321:Drivers/STM32WLxx_HAL_Driver/Src/stm32wlxx_hal_i2c_ex.c **** /**
 322:Drivers/STM32WLxx_HAL_Driver/Src/stm32wlxx_hal_i2c_ex.c ****   * @brief Disable the I2C fast mode plus driving capability.
 323:Drivers/STM32WLxx_HAL_Driver/Src/stm32wlxx_hal_i2c_ex.c ****   * @param ConfigFastModePlus Selects the pin.
 324:Drivers/STM32WLxx_HAL_Driver/Src/stm32wlxx_hal_i2c_ex.c ****   *   This parameter can be one of the @ref I2CEx_FastModePlus values
 325:Drivers/STM32WLxx_HAL_Driver/Src/stm32wlxx_hal_i2c_ex.c ****   * @note  For I2C1, fast mode plus driving capability can be disabled on all selected
 326:Drivers/STM32WLxx_HAL_Driver/Src/stm32wlxx_hal_i2c_ex.c ****   *        I2C1 pins using I2C_FASTMODEPLUS_I2C1 parameter or independently
 327:Drivers/STM32WLxx_HAL_Driver/Src/stm32wlxx_hal_i2c_ex.c ****   *        on each one of the following pins PB6, PB7, PB8 and PB9.
 328:Drivers/STM32WLxx_HAL_Driver/Src/stm32wlxx_hal_i2c_ex.c ****   * @note  For remaining I2C1 pins (PA14, PA15...) fast mode plus driving capability
 329:Drivers/STM32WLxx_HAL_Driver/Src/stm32wlxx_hal_i2c_ex.c ****   *        can be disabled only by using I2C_FASTMODEPLUS_I2C1 parameter.
 330:Drivers/STM32WLxx_HAL_Driver/Src/stm32wlxx_hal_i2c_ex.c ****   * @note  For all I2C2 pins fast mode plus driving capability can be disabled
 331:Drivers/STM32WLxx_HAL_Driver/Src/stm32wlxx_hal_i2c_ex.c ****   *        only by using I2C_FASTMODEPLUS_I2C2 parameter.
 332:Drivers/STM32WLxx_HAL_Driver/Src/stm32wlxx_hal_i2c_ex.c ****   * @note  For all I2C3 pins fast mode plus driving capability can be disabled
 333:Drivers/STM32WLxx_HAL_Driver/Src/stm32wlxx_hal_i2c_ex.c ****   *        only by using I2C_FASTMODEPLUS_I2C3 parameter.
 334:Drivers/STM32WLxx_HAL_Driver/Src/stm32wlxx_hal_i2c_ex.c ****   * @retval None
 335:Drivers/STM32WLxx_HAL_Driver/Src/stm32wlxx_hal_i2c_ex.c ****   */
 336:Drivers/STM32WLxx_HAL_Driver/Src/stm32wlxx_hal_i2c_ex.c **** void HAL_I2CEx_DisableFastModePlus(uint32_t ConfigFastModePlus)
 337:Drivers/STM32WLxx_HAL_Driver/Src/stm32wlxx_hal_i2c_ex.c **** {
 433              		.loc 1 337 1 is_stmt 1 view -0
 434              		.cfi_startproc
 435              		@ args = 0, pretend = 0, frame = 0
 436              		@ frame_needed = 0, uses_anonymous_args = 0
 437              		@ link register save eliminated.
 338:Drivers/STM32WLxx_HAL_Driver/Src/stm32wlxx_hal_i2c_ex.c ****   /* Check the parameter */
 339:Drivers/STM32WLxx_HAL_Driver/Src/stm32wlxx_hal_i2c_ex.c ****   assert_param(IS_I2C_FASTMODEPLUS(ConfigFastModePlus));
 438              		.loc 1 339 3 view .LVU140
 340:Drivers/STM32WLxx_HAL_Driver/Src/stm32wlxx_hal_i2c_ex.c **** 
 341:Drivers/STM32WLxx_HAL_Driver/Src/stm32wlxx_hal_i2c_ex.c ****   /* Disable fast mode plus driving capability for selected pin */
 342:Drivers/STM32WLxx_HAL_Driver/Src/stm32wlxx_hal_i2c_ex.c ****   CLEAR_BIT(SYSCFG->CFGR1, (uint32_t)ConfigFastModePlus);
 439              		.loc 1 342 3 view .LVU141
 440 0000 024A     		ldr	r2, .L21
 441 0002 5368     		ldr	r3, [r2, #4]
 442 0004 23EA0003 		bic	r3, r3, r0
 443 0008 5360     		str	r3, [r2, #4]
 343:Drivers/STM32WLxx_HAL_Driver/Src/stm32wlxx_hal_i2c_ex.c **** }
 444              		.loc 1 343 1 is_stmt 0 view .LVU142
 445 000a 7047     		bx	lr
 446              	.L22:
 447              		.align	2
 448              	.L21:
 449 000c 00000140 		.word	1073807360
 450              		.cfi_endproc
 451              	.LFE856:
 453              		.text
 454              	.Letext0:
 455              		.file 2 "c:\\users\\david.fobar\\appdata\\roaming\\code\\user\\globalstorage\\bmd.stm32-for-vscode
 456              		.file 3 "c:\\users\\david.fobar\\appdata\\roaming\\code\\user\\globalstorage\\bmd.stm32-for-vscode
 457              		.file 4 "Drivers/CMSIS/Device/ST/STM32WLxx/Include/stm32wle5xx.h"
 458              		.file 5 "Drivers/STM32WLxx_HAL_Driver/Inc/stm32wlxx_hal_def.h"
 459              		.file 6 "Drivers/STM32WLxx_HAL_Driver/Inc/stm32wlxx_hal_dma.h"
 460              		.file 7 "Drivers/STM32WLxx_HAL_Driver/Inc/stm32wlxx_hal_i2c.h"
 461              		.file 8 "Drivers/STM32WLxx_HAL_Driver/Inc/stm32wlxx_ll_dma.h"
ARM GAS  C:\Users\DAVID~1.FOB\AppData\Local\Temp\ccvrB5Zl.s 			page 15

